; Listing generated by Microsoft (R) Optimizing Compiler Version 19.27.29111.0 

include listing.inc

INCLUDELIB MSVCRT
INCLUDELIB OLDNAMES

PUBLIC	__local_stdio_printf_options
PUBLIC	printf
PUBLIC	??0exception@std@@QEAA@AEBV01@@Z		; std::exception::exception
PUBLIC	??1exception@std@@UEAA@XZ			; std::exception::~exception
PUBLIC	?what@exception@std@@UEBAPEBDXZ			; std::exception::what
PUBLIC	??_Gexception@std@@UEAAPEAXI@Z			; std::exception::`scalar deleting destructor'
PUBLIC	??0bad_alloc@std@@QEAA@AEBV01@@Z		; std::bad_alloc::bad_alloc
PUBLIC	??_Gbad_alloc@std@@UEAAPEAXI@Z			; std::bad_alloc::`scalar deleting destructor'
PUBLIC	??0bad_array_new_length@std@@QEAA@XZ		; std::bad_array_new_length::bad_array_new_length
PUBLIC	??1bad_array_new_length@std@@UEAA@XZ		; std::bad_array_new_length::~bad_array_new_length
PUBLIC	??0bad_array_new_length@std@@QEAA@AEBV01@@Z	; std::bad_array_new_length::bad_array_new_length
PUBLIC	??_Gbad_array_new_length@std@@UEAAPEAXI@Z	; std::bad_array_new_length::`scalar deleting destructor'
PUBLIC	?_Throw_bad_array_new_length@std@@YAXXZ		; std::_Throw_bad_array_new_length
PUBLIC	?_Xlen_string@std@@YAXXZ			; std::_Xlen_string
PUBLIC	?_Xran@?$_String_val@U?$_Simple_types@D@std@@@std@@SAXXZ ; std::_String_val<std::_Simple_types<char> >::_Xran
PUBLIC	??0?$basic_string@DU?$char_traits@D@std@@V?$allocator@D@2@@std@@QEAA@AEBV01@@Z ; std::basic_string<char,std::char_traits<char>,std::allocator<char> >::basic_string<char,std::char_traits<char>,std::allocator<char> >
PUBLIC	??1?$basic_string@DU?$char_traits@D@std@@V?$allocator@D@2@@std@@QEAA@XZ ; std::basic_string<char,std::char_traits<char>,std::allocator<char> >::~basic_string<char,std::char_traits<char>,std::allocator<char> >
PUBLIC	?assign@?$basic_string@DU?$char_traits@D@std@@V?$allocator@D@2@@std@@QEAAAEAV12@QEBD_K@Z ; std::basic_string<char,std::char_traits<char>,std::allocator<char> >::assign
PUBLIC	?stoi@std@@YAHAEBV?$basic_string@DU?$char_traits@D@std@@V?$allocator@D@2@@1@PEA_KH@Z ; std::stoi
PUBLIC	??0bad_cast@std@@QEAA@XZ			; std::bad_cast::bad_cast
PUBLIC	??1bad_cast@std@@UEAA@XZ			; std::bad_cast::~bad_cast
PUBLIC	??0bad_cast@std@@QEAA@AEBV01@@Z			; std::bad_cast::bad_cast
PUBLIC	??_Gbad_cast@std@@UEAAPEAXI@Z			; std::bad_cast::`scalar deleting destructor'
PUBLIC	?_Throw_bad_cast@std@@YAXXZ			; std::_Throw_bad_cast
PUBLIC	??1locale@std@@QEAA@XZ				; std::locale::~locale
PUBLIC	??_G_CODE_LINK@@QEAAPEAXI@Z			; _CODE_LINK::`scalar deleting destructor'
PUBLIC	?deallocate@?$allocator@E@std@@QEAAXQEAE_K@Z	; std::allocator<unsigned char>::deallocate
PUBLIC	?_Xlength@?$vector@EV?$allocator@E@std@@@std@@CAXXZ ; std::vector<unsigned char,std::allocator<unsigned char> >::_Xlength
PUBLIC	?deallocate@?$allocator@PEAU_VM_INSTRUCTION@@@std@@QEAAXQEAPEAU_VM_INSTRUCTION@@_K@Z ; std::allocator<_VM_INSTRUCTION *>::deallocate
PUBLIC	?_Xlength@?$vector@PEAU_VM_INSTRUCTION@@V?$allocator@PEAU_VM_INSTRUCTION@@@std@@@std@@CAXXZ ; std::vector<_VM_INSTRUCTION *,std::allocator<_VM_INSTRUCTION *> >::_Xlength
PUBLIC	?VmTokenizeLine@@YA?AV?$vector@V?$basic_string@DU?$char_traits@D@std@@V?$allocator@D@2@@std@@V?$allocator@V?$basic_string@DU?$char_traits@D@std@@V?$allocator@D@2@@std@@@2@@std@@AEBV?$basic_string@DU?$char_traits@D@std@@V?$allocator@D@2@@2@0@Z ; VmTokenizeLine
PUBLIC	?VmGetInstructionId@@YAHAEBV?$basic_string@DU?$char_traits@D@std@@V?$allocator@D@2@@std@@PEAE@Z ; VmGetInstructionId
PUBLIC	?VmGetRegisterId@@YAHAEBV?$basic_string@DU?$char_traits@D@std@@V?$allocator@D@2@@std@@PEAE@Z ; VmGetRegisterId
PUBLIC	?VmGetInstructionLength@@YAHE@Z			; VmGetInstructionLength
PUBLIC	?VmLoadDefaultInstructions@@YAXPEAU_VM_ASSEMBLER@@@Z ; VmLoadDefaultInstructions
PUBLIC	?VmGetInverseStackChange@@YAHPEAU_CODE_LINK@@@Z	; VmGetInverseStackChange
PUBLIC	?VmGetInverseStackChangeForRange@@YAHPEAU_VM_ASSEMBLER@@PEAU_CODE_LINK@@H@Z ; VmGetInverseStackChangeForRange
PUBLIC	?VmAddOpaqueBranch@@YAHPEAU_VM_ASSEMBLER@@PEAU_CODE_LINK@@HH@Z ; VmAddOpaqueBranch
PUBLIC	?VmAddInstruction@@YAHPEAU_VM_ASSEMBLER@@AEBV?$vector@V?$basic_string@DU?$char_traits@D@std@@V?$allocator@D@2@@std@@V?$allocator@V?$basic_string@DU?$char_traits@D@std@@V?$allocator@D@2@@std@@@2@@std@@@Z ; VmAddInstruction
PUBLIC	?VmLoadFile@@YAHPEAU_VM_ASSEMBLER@@AEBV?$basic_string@DU?$char_traits@D@std@@V?$allocator@D@2@@std@@@Z ; VmLoadFile
PUBLIC	?VmAppendJumpsToUsed@@YAXPEAU_VM_ASSEMBLER@@@Z	; VmAppendJumpsToUsed
PUBLIC	?VmShuffleUsedHandlerOder@@YAXPEAU_VM_ASSEMBLER@@@Z ; VmShuffleUsedHandlerOder
PUBLIC	?VmFoldTable@@YAXPEAU_VM_ASSEMBLER@@@Z		; VmFoldTable
PUBLIC	?VmGenerateRandomOpCodes@@YAXPEAU_VM_ASSEMBLER@@@Z ; VmGenerateRandomOpCodes
PUBLIC	?VmGetCodeSize@@YAKPEAU_VM_ASSEMBLER@@@Z	; VmGetCodeSize
PUBLIC	?VmGetVmSize@@YAKPEAU_VM_ASSEMBLER@@@Z		; VmGetVmSize
PUBLIC	?VmGetJumpDelta@@YAHPEAU_CODE_LINK@@@Z		; VmGetJumpDelta
PUBLIC	?VmAssembleCodeToBuffer@@YAPEAXPEAU_VM_ASSEMBLER@@PEAK@Z ; VmAssembleCodeToBuffer
PUBLIC	?VmAssembleVmToBuffer@@YAPEAXPEAU_VM_ASSEMBLER@@PEAK@Z ; VmAssembleVmToBuffer
PUBLIC	?VmBuildHandlerTable@@YAXPEAU_VM_ASSEMBLER@@PEAK@Z ; VmBuildHandlerTable
PUBLIC	?VmBuildSymbolTable@@YAPEAXPEAU_VM_ASSEMBLER@@PEAK@Z ; VmBuildSymbolTable
PUBLIC	?VmGetVmEnterOpCode@@YAEPEAU_VM_ASSEMBLER@@@Z	; VmGetVmEnterOpCode
PUBLIC	?deallocate@?$allocator@V?$basic_string@DU?$char_traits@D@std@@V?$allocator@D@2@@std@@@std@@QEAAXQEAV?$basic_string@DU?$char_traits@D@std@@V?$allocator@D@2@@2@_K@Z ; std::allocator<std::basic_string<char,std::char_traits<char>,std::allocator<char> > >::deallocate
PUBLIC	??1?$vector@V?$basic_string@DU?$char_traits@D@std@@V?$allocator@D@2@@std@@V?$allocator@V?$basic_string@DU?$char_traits@D@std@@V?$allocator@D@2@@std@@@2@@std@@QEAA@XZ ; std::vector<std::basic_string<char,std::char_traits<char>,std::allocator<char> >,std::allocator<std::basic_string<char,std::char_traits<char>,std::allocator<char> > > >::~vector<std::basic_string<char,std::char_traits<char>,std::allocator<char> >,std::allocator<std::basic_string<char,std::char_traits<char>,std::allocator<char> > > >
PUBLIC	?_Destroy@?$vector@V?$basic_string@DU?$char_traits@D@std@@V?$allocator@D@2@@std@@V?$allocator@V?$basic_string@DU?$char_traits@D@std@@V?$allocator@D@2@@std@@@2@@std@@AEAAXPEAV?$basic_string@DU?$char_traits@D@std@@V?$allocator@D@2@@2@0@Z ; std::vector<std::basic_string<char,std::char_traits<char>,std::allocator<char> >,std::allocator<std::basic_string<char,std::char_traits<char>,std::allocator<char> > > >::_Destroy
PUBLIC	?_Xlength@?$vector@V?$basic_string@DU?$char_traits@D@std@@V?$allocator@D@2@@std@@V?$allocator@V?$basic_string@DU?$char_traits@D@std@@V?$allocator@D@2@@std@@@2@@std@@CAXXZ ; std::vector<std::basic_string<char,std::char_traits<char>,std::allocator<char> >,std::allocator<std::basic_string<char,std::char_traits<char>,std::allocator<char> > > >::_Xlength
PUBLIC	??$?8DU?$char_traits@D@std@@V?$allocator@D@1@@std@@YA_NAEBV?$basic_string@DU?$char_traits@D@std@@V?$allocator@D@2@@0@QEBD@Z ; std::operator==<char,std::char_traits<char>,std::allocator<char> >
PUBLIC	??0?$basic_ifstream@DU?$char_traits@D@std@@@std@@QEAA@PEBDHH@Z ; std::basic_ifstream<char,std::char_traits<char> >::basic_ifstream<char,std::char_traits<char> >
PUBLIC	??1?$basic_ifstream@DU?$char_traits@D@std@@@std@@UEAA@XZ ; std::basic_ifstream<char,std::char_traits<char> >::~basic_ifstream<char,std::char_traits<char> >
PUBLIC	??1?$basic_filebuf@DU?$char_traits@D@std@@@std@@UEAA@XZ ; std::basic_filebuf<char,std::char_traits<char> >::~basic_filebuf<char,std::char_traits<char> >
PUBLIC	?close@?$basic_filebuf@DU?$char_traits@D@std@@@std@@QEAAPEAV12@XZ ; std::basic_filebuf<char,std::char_traits<char> >::close
PUBLIC	?_Lock@?$basic_filebuf@DU?$char_traits@D@std@@@std@@UEAAXXZ ; std::basic_filebuf<char,std::char_traits<char> >::_Lock
PUBLIC	?_Unlock@?$basic_filebuf@DU?$char_traits@D@std@@@std@@UEAAXXZ ; std::basic_filebuf<char,std::char_traits<char> >::_Unlock
PUBLIC	?overflow@?$basic_filebuf@DU?$char_traits@D@std@@@std@@MEAAHH@Z ; std::basic_filebuf<char,std::char_traits<char> >::overflow
PUBLIC	?pbackfail@?$basic_filebuf@DU?$char_traits@D@std@@@std@@MEAAHH@Z ; std::basic_filebuf<char,std::char_traits<char> >::pbackfail
PUBLIC	?underflow@?$basic_filebuf@DU?$char_traits@D@std@@@std@@MEAAHXZ ; std::basic_filebuf<char,std::char_traits<char> >::underflow
PUBLIC	?uflow@?$basic_filebuf@DU?$char_traits@D@std@@@std@@MEAAHXZ ; std::basic_filebuf<char,std::char_traits<char> >::uflow
PUBLIC	?xsgetn@?$basic_filebuf@DU?$char_traits@D@std@@@std@@MEAA_JPEAD_J@Z ; std::basic_filebuf<char,std::char_traits<char> >::xsgetn
PUBLIC	?xsputn@?$basic_filebuf@DU?$char_traits@D@std@@@std@@MEAA_JPEBD_J@Z ; std::basic_filebuf<char,std::char_traits<char> >::xsputn
PUBLIC	?seekoff@?$basic_filebuf@DU?$char_traits@D@std@@@std@@MEAA?AV?$fpos@U_Mbstatet@@@2@_JHH@Z ; std::basic_filebuf<char,std::char_traits<char> >::seekoff
PUBLIC	?seekpos@?$basic_filebuf@DU?$char_traits@D@std@@@std@@MEAA?AV?$fpos@U_Mbstatet@@@2@V32@H@Z ; std::basic_filebuf<char,std::char_traits<char> >::seekpos
PUBLIC	?setbuf@?$basic_filebuf@DU?$char_traits@D@std@@@std@@MEAAPEAV?$basic_streambuf@DU?$char_traits@D@std@@@2@PEAD_J@Z ; std::basic_filebuf<char,std::char_traits<char> >::setbuf
PUBLIC	?sync@?$basic_filebuf@DU?$char_traits@D@std@@@std@@MEAAHXZ ; std::basic_filebuf<char,std::char_traits<char> >::sync
PUBLIC	?imbue@?$basic_filebuf@DU?$char_traits@D@std@@@std@@MEAAXAEBVlocale@2@@Z ; std::basic_filebuf<char,std::char_traits<char> >::imbue
PUBLIC	?_Endwrite@?$basic_filebuf@DU?$char_traits@D@std@@@std@@IEAA_NXZ ; std::basic_filebuf<char,std::char_traits<char> >::_Endwrite
PUBLIC	?_Reset_back@?$basic_filebuf@DU?$char_traits@D@std@@@std@@AEAAXXZ ; std::basic_filebuf<char,std::char_traits<char> >::_Reset_back
PUBLIC	??_G?$basic_filebuf@DU?$char_traits@D@std@@@std@@UEAAPEAXI@Z ; std::basic_filebuf<char,std::char_traits<char> >::`scalar deleting destructor'
PUBLIC	??_G?$basic_ifstream@DU?$char_traits@D@std@@@std@@UEAAPEAXI@Z ; std::basic_ifstream<char,std::char_traits<char> >::`scalar deleting destructor'
PUBLIC	??_D?$basic_ifstream@DU?$char_traits@D@std@@@std@@QEAAXXZ ; std::basic_ifstream<char,std::char_traits<char> >::`vbase destructor'
PUBLIC	??$getline@DU?$char_traits@D@std@@V?$allocator@D@2@@std@@YAAEAV?$basic_istream@DU?$char_traits@D@std@@@0@AEAV10@AEAV?$basic_string@DU?$char_traits@D@std@@V?$allocator@D@2@@0@@Z ; std::getline<char,std::char_traits<char>,std::allocator<char> >
PUBLIC	??$shuffle@V?$_Vector_iterator@V?$_Vector_val@U?$_Simple_types@PEAU_VM_INSTRUCTION@@@std@@@std@@@std@@AEAV?$mersenne_twister_engine@I$0CA@$0CHA@$0BIN@$0BP@$0JJAILANP@$0L@$0PPPPPPPP@$06$0JNCMFGIA@$0P@$0OPMGAAAA@$0BC@$0GMAHIJGF@@2@@std@@YAXV?$_Vector_iterator@V?$_Vector_val@U?$_Simple_types@PEAU_VM_INSTRUCTION@@@std@@@std@@@0@0AEAV?$mersenne_twister_engine@I$0CA@$0CHA@$0BIN@$0BP@$0JJAILANP@$0L@$0PPPPPPPP@$06$0JNCMFGIA@$0P@$0OPMGAAAA@$0BC@$0GMAHIJGF@@0@@Z ; std::shuffle<std::_Vector_iterator<std::_Vector_val<std::_Simple_types<_VM_INSTRUCTION *> > >,std::mersenne_twister_engine<unsigned int,32,624,397,31,2567483615,11,4294967295,7,2636928640,15,4022730752,18,1812433253> &>
PUBLIC	??$?8DU?$char_traits@D@std@@V?$allocator@D@1@@std@@YA_NAEBV?$basic_string@DU?$char_traits@D@std@@V?$allocator@D@2@@0@0@Z ; std::operator==<char,std::char_traits<char>,std::allocator<char> >
PUBLIC	?deallocate@?$allocator@U_VM_SYMBOL@@@std@@QEAAXQEAU_VM_SYMBOL@@_K@Z ; std::allocator<_VM_SYMBOL>::deallocate
PUBLIC	??1?$vector@U_VM_SYMBOL@@V?$allocator@U_VM_SYMBOL@@@std@@@std@@QEAA@XZ ; std::vector<_VM_SYMBOL,std::allocator<_VM_SYMBOL> >::~vector<_VM_SYMBOL,std::allocator<_VM_SYMBOL> >
PUBLIC	?_Xlength@?$vector@U_VM_SYMBOL@@V?$allocator@U_VM_SYMBOL@@@std@@@std@@CAXXZ ; std::vector<_VM_SYMBOL,std::allocator<_VM_SYMBOL> >::_Xlength
PUBLIC	??$_Emplace_reallocate@$$V@?$vector@U_VM_SYMBOL@@V?$allocator@U_VM_SYMBOL@@@std@@@std@@QEAAPEAU_VM_SYMBOL@@QEAU2@@Z ; std::vector<_VM_SYMBOL,std::allocator<_VM_SYMBOL> >::_Emplace_reallocate<>
PUBLIC	??$_Unfancy_maybe_null@U_VM_SYMBOL@@@std@@YAPEAU_VM_SYMBOL@@PEAU1@@Z ; std::_Unfancy_maybe_null<_VM_SYMBOL>
PUBLIC	??$use_facet@V?$codecvt@DDU_Mbstatet@@@std@@@std@@YAAEBV?$codecvt@DDU_Mbstatet@@@0@AEBVlocale@0@@Z ; std::use_facet<std::codecvt<char,char,_Mbstatet> >
PUBLIC	??$_Emplace_reallocate@AEBV?$basic_string@DU?$char_traits@D@std@@V?$allocator@D@2@@std@@@?$vector@V?$basic_string@DU?$char_traits@D@std@@V?$allocator@D@2@@std@@V?$allocator@V?$basic_string@DU?$char_traits@D@std@@V?$allocator@D@2@@std@@@2@@std@@QEAAPEAV?$basic_string@DU?$char_traits@D@std@@V?$allocator@D@2@@1@QEAV21@AEBV21@@Z ; std::vector<std::basic_string<char,std::char_traits<char>,std::allocator<char> >,std::allocator<std::basic_string<char,std::char_traits<char>,std::allocator<char> > > >::_Emplace_reallocate<std::basic_string<char,std::char_traits<char>,std::allocator<char> > const &>
PUBLIC	??$_Emplace_reallocate@PEAU_VM_INSTRUCTION@@@?$vector@PEAU_VM_INSTRUCTION@@V?$allocator@PEAU_VM_INSTRUCTION@@@std@@@std@@QEAAPEAPEAU_VM_INSTRUCTION@@QEAPEAU2@$$QEAPEAU2@@Z ; std::vector<_VM_INSTRUCTION *,std::allocator<_VM_INSTRUCTION *> >::_Emplace_reallocate<_VM_INSTRUCTION *>
PUBLIC	??$_Emplace_reallocate@E@?$vector@EV?$allocator@E@std@@@std@@QEAAPEAEQEAE$$QEAE@Z ; std::vector<unsigned char,std::allocator<unsigned char> >::_Emplace_reallocate<unsigned char>
PUBLIC	??$_Refancy@PEAD$0A@@std@@YAPEADPEAD@Z		; std::_Refancy<char *,0>
PUBLIC	??$_Destroy_range@V?$allocator@PEAU_VM_INSTRUCTION@@@std@@@std@@YAXPEAPEAU_VM_INSTRUCTION@@QEAPEAU1@AEAV?$allocator@PEAU_VM_INSTRUCTION@@@0@@Z ; std::_Destroy_range<std::allocator<_VM_INSTRUCTION *> >
PUBLIC	??$_Destroy_in_place@PEAD@std@@YAXAEAPEAD@Z	; std::_Destroy_in_place<char *>
PUBLIC	??$_Reallocate_grow_by@V<lambda_319d5e083f45f90dcdce5dce53cbb275>@@D@?$basic_string@DU?$char_traits@D@std@@V?$allocator@D@2@@std@@AEAAAEAV01@_KV<lambda_319d5e083f45f90dcdce5dce53cbb275>@@D@Z ; std::basic_string<char,std::char_traits<char>,std::allocator<char> >::_Reallocate_grow_by<<lambda_319d5e083f45f90dcdce5dce53cbb275>,char>
PUBLIC	??$_Pocca@V?$allocator@D@std@@@std@@YAXAEAV?$allocator@D@0@AEBV10@@Z ; std::_Pocca<std::allocator<char> >
PUBLIC	??$_Construct_in_place@PEADAEBQEAD@std@@YAXAEAPEADAEBQEAD@Z ; std::_Construct_in_place<char *,char * const &>
PUBLIC	??$_Destroy_range@V?$allocator@U_VM_SYMBOL@@@std@@@std@@YAXPEAU_VM_SYMBOL@@QEAU1@AEAV?$allocator@U_VM_SYMBOL@@@0@@Z ; std::_Destroy_range<std::allocator<_VM_SYMBOL> >
PUBLIC	??$_Deallocate@$0BA@$0A@@std@@YAXPEAX_K@Z	; std::_Deallocate<16,0>
PUBLIC	??$_Destroy_range@V?$allocator@V?$basic_string@DU?$char_traits@D@std@@V?$allocator@D@2@@std@@@std@@@std@@YAXPEAV?$basic_string@DU?$char_traits@D@std@@V?$allocator@D@2@@0@QEAV10@AEAV?$allocator@V?$basic_string@DU?$char_traits@D@std@@V?$allocator@D@2@@std@@@0@@Z ; std::_Destroy_range<std::allocator<std::basic_string<char,std::char_traits<char>,std::allocator<char> > > >
PUBLIC	??$_Allocate@$0BA@U_Default_allocate_traits@std@@$0A@@std@@YAPEAX_K@Z ; std::_Allocate<16,std::_Default_allocate_traits,0>
PUBLIC	??1?$unique_ptr@V_Facet_base@std@@U?$default_delete@V_Facet_base@std@@@2@@std@@QEAA@XZ ; std::unique_ptr<std::_Facet_base,std::default_delete<std::_Facet_base> >::~unique_ptr<std::_Facet_base,std::default_delete<std::_Facet_base> >
PUBLIC	??$getline@DU?$char_traits@D@std@@V?$allocator@D@2@@std@@YAAEAV?$basic_istream@DU?$char_traits@D@std@@@0@$$QEAV10@AEAV?$basic_string@DU?$char_traits@D@std@@V?$allocator@D@2@@0@D@Z ; std::getline<char,std::char_traits<char>,std::allocator<char> >
PUBLIC	??$_Random_shuffle1@V?$_Vector_iterator@V?$_Vector_val@U?$_Simple_types@PEAU_VM_INSTRUCTION@@@std@@@std@@@std@@V?$_Rng_from_urng@_JV?$mersenne_twister_engine@I$0CA@$0CHA@$0BIN@$0BP@$0JJAILANP@$0L@$0PPPPPPPP@$06$0JNCMFGIA@$0P@$0OPMGAAAA@$0BC@$0GMAHIJGF@@std@@@2@@std@@YAXV?$_Vector_iterator@V?$_Vector_val@U?$_Simple_types@PEAU_VM_INSTRUCTION@@@std@@@std@@@0@0AEAV?$_Rng_from_urng@_JV?$mersenne_twister_engine@I$0CA@$0CHA@$0BIN@$0BP@$0JJAILANP@$0L@$0PPPPPPPP@$06$0JNCMFGIA@$0P@$0OPMGAAAA@$0BC@$0GMAHIJGF@@std@@@0@@Z ; std::_Random_shuffle1<std::_Vector_iterator<std::_Vector_val<std::_Simple_types<_VM_INSTRUCTION *> > >,std::_Rng_from_urng<__int64,std::mersenne_twister_engine<unsigned int,32,624,397,31,2567483615,11,4294967295,7,2636928640,15,4022730752,18,1812433253> > >
PUBLIC	??$_Allocate_manually_vector_aligned@U_Default_allocate_traits@std@@@std@@YAPEAX_K@Z ; std::_Allocate_manually_vector_aligned<std::_Default_allocate_traits>
PUBLIC	??$_Uninitialized_move@PEAU_VM_SYMBOL@@V?$allocator@U_VM_SYMBOL@@@std@@@std@@YAPEAU_VM_SYMBOL@@QEAU1@0PEAU1@AEAV?$allocator@U_VM_SYMBOL@@@0@@Z ; std::_Uninitialized_move<_VM_SYMBOL *,std::allocator<_VM_SYMBOL> >
PUBLIC	??$_Uninitialized_move@PEAV?$basic_string@DU?$char_traits@D@std@@V?$allocator@D@2@@std@@V?$allocator@V?$basic_string@DU?$char_traits@D@std@@V?$allocator@D@2@@std@@@2@@std@@YAPEAV?$basic_string@DU?$char_traits@D@std@@V?$allocator@D@2@@0@QEAV10@0PEAV10@AEAV?$allocator@V?$basic_string@DU?$char_traits@D@std@@V?$allocator@D@2@@std@@@0@@Z ; std::_Uninitialized_move<std::basic_string<char,std::char_traits<char>,std::allocator<char> > *,std::allocator<std::basic_string<char,std::char_traits<char>,std::allocator<char> > > >
PUBLIC	??$_Uninitialized_move@PEAPEAU_VM_INSTRUCTION@@V?$allocator@PEAU_VM_INSTRUCTION@@@std@@@std@@YAPEAPEAU_VM_INSTRUCTION@@QEAPEAU1@0PEAPEAU1@AEAV?$allocator@PEAU_VM_INSTRUCTION@@@0@@Z ; std::_Uninitialized_move<_VM_INSTRUCTION * *,std::allocator<_VM_INSTRUCTION *> >
PUBLIC	??$_Destroy_range@V?$allocator@E@std@@@std@@YAXPEAEQEAEAEAV?$allocator@E@0@@Z ; std::_Destroy_range<std::allocator<unsigned char> >
PUBLIC	??$_Uninitialized_move@PEAEV?$allocator@E@std@@@std@@YAPEAEQEAE0PEAEAEAV?$allocator@E@0@@Z ; std::_Uninitialized_move<unsigned char *,std::allocator<unsigned char> >
PUBLIC	??1_Sentry_base@?$basic_istream@DU?$char_traits@D@std@@@std@@QEAA@XZ ; std::basic_istream<char,std::char_traits<char> >::_Sentry_base::~_Sentry_base
PUBLIC	??1sentry@?$basic_istream@DU?$char_traits@D@std@@@std@@QEAA@XZ ; std::basic_istream<char,std::char_traits<char> >::sentry::~sentry
PUBLIC	??$_Copy_memmove@PEAU_VM_SYMBOL@@PEAU1@@std@@YAPEAU_VM_SYMBOL@@PEAU1@00@Z ; std::_Copy_memmove<_VM_SYMBOL *,_VM_SYMBOL *>
PUBLIC	??$_Copy_memmove@PEAPEAU_VM_INSTRUCTION@@PEAPEAU1@@std@@YAPEAPEAU_VM_INSTRUCTION@@PEAPEAU1@00@Z ; std::_Copy_memmove<_VM_INSTRUCTION * *,_VM_INSTRUCTION * *>
PUBLIC	??$_Copy_memmove@PEAEPEAE@std@@YAPEAEPEAE00@Z	; std::_Copy_memmove<unsigned char *,unsigned char *>
PUBLIC	??$_Refancy@PEBD$0A@@std@@YAPEBDPEBD@Z		; std::_Refancy<char const *,0>
PUBLIC	??_E?$basic_ifstream@DU?$char_traits@D@std@@@std@@$4PPPPPPPM@A@EAAPEAXI@Z ; std::basic_ifstream<char,std::char_traits<char> >::`vector deleting destructor'
PUBLIC	?_OptionsStorage@?1??__local_stdio_printf_options@@9@4_KA ; `__local_stdio_printf_options'::`2'::_OptionsStorage
PUBLIC	??_7exception@std@@6B@				; std::exception::`vftable'
PUBLIC	??_C@_0BC@EOODALEL@Unknown?5exception@		; `string'
PUBLIC	??_7bad_alloc@std@@6B@				; std::bad_alloc::`vftable'
PUBLIC	??_7bad_array_new_length@std@@6B@		; std::bad_array_new_length::`vftable'
PUBLIC	??_C@_0BF@KINCDENJ@bad?5array?5new?5length@	; `string'
PUBLIC	_TI3?AVbad_array_new_length@std@@
PUBLIC	_CTA3?AVbad_array_new_length@std@@
PUBLIC	??_R0?AVbad_array_new_length@std@@@8		; std::bad_array_new_length `RTTI Type Descriptor'
PUBLIC	_CT??_R0?AVbad_array_new_length@std@@@8??0bad_array_new_length@std@@QEAA@AEBV01@@Z24
PUBLIC	??_R0?AVbad_alloc@std@@@8			; std::bad_alloc `RTTI Type Descriptor'
PUBLIC	_CT??_R0?AVbad_alloc@std@@@8??0bad_alloc@std@@QEAA@AEBV01@@Z24
PUBLIC	??_R0?AVexception@std@@@8			; std::exception `RTTI Type Descriptor'
PUBLIC	_CT??_R0?AVexception@std@@@8??0exception@std@@QEAA@AEBV01@@Z24
PUBLIC	??_C@_0BA@JFNIOLAK@string?5too?5long@		; `string'
PUBLIC	??_C@_0BG@HGEDEDEC@invalid?5stoi?5argument@	; `string'
PUBLIC	??_C@_0BL@MFFNMGGC@stoi?5argument?5out?5of?5range@ ; `string'
PUBLIC	??_7bad_cast@std@@6B@				; std::bad_cast::`vftable'
PUBLIC	??_C@_08EPJLHIJG@bad?5cast@			; `string'
PUBLIC	_TI2?AVbad_cast@std@@
PUBLIC	_CTA2?AVbad_cast@std@@
PUBLIC	??_R0?AVbad_cast@std@@@8			; std::bad_cast `RTTI Type Descriptor'
PUBLIC	_CT??_R0?AVbad_cast@std@@@8??0bad_cast@std@@QEAA@AEBV01@@Z24
PUBLIC	?InstructionBindings@@3PAPEBDA			; InstructionBindings
PUBLIC	??_C@_07COKNFLJB@VMENTER@			; `string'
PUBLIC	??_C@_06KOGGDLNF@VMEXIT@			; `string'
PUBLIC	??_C@_03GEANJIEE@NOP@				; `string'
PUBLIC	??_C@_04NKMOJAI@LDIB@				; `string'
PUBLIC	??_C@_04DKBJAPBM@LDIW@				; `string'
PUBLIC	??_C@_04FLPGEOIO@LDID@				; `string'
PUBLIC	??_C@_04GMEDKIJK@LDIQ@				; `string'
PUBLIC	??_C@_07BACCOCAE@LDIBSXW@			; `string'
PUBLIC	??_C@_07HBMNKDJG@LDIBSXD@			; `string'
PUBLIC	??_C@_07EGHIEFIC@LDIBSXQ@			; `string'
PUBLIC	??_C@_07NJMNLLGE@LDIWSXD@			; `string'
PUBLIC	??_C@_07OOHIFNHA@LDIWSXQ@			; `string'
PUBLIC	??_C@_07MJDILACC@LDIDSXQ@			; `string'
PUBLIC	??_C@_07GNCKKNIO@LDIBZXW@			; `string'
PUBLIC	??_C@_07MMFOMBM@LDIBZXD@			; `string'
PUBLIC	??_C@_07DLHAAKAI@LDIBZXQ@			; `string'
PUBLIC	??_C@_07KEMFPEOO@LDIWZXD@			; `string'
PUBLIC	??_C@_07JDHABCPK@LDIWZXQ@			; `string'
PUBLIC	??_C@_07LEDAPPKI@LDIDZXQ@			; `string'
PUBLIC	??_C@_04DLPLILA@LDAB@				; `string'
PUBLIC	??_C@_04DEAKFOKE@LDAW@				; `string'
PUBLIC	??_C@_04FFOFBPDG@LDAD@				; `string'
PUBLIC	??_C@_04GCFAPJCC@LDAQ@				; `string'
PUBLIC	??_C@_04LBBGOPHM@STAB@				; `string'
PUBLIC	??_C@_04IGKDAJGI@STAW@				; `string'
PUBLIC	??_C@_04OHEMEIPK@STAD@				; `string'
PUBLIC	??_C@_04NAPJKOOO@STAQ@				; `string'
PUBLIC	??_C@_04MODDAIIJ@SXBW@				; `string'
PUBLIC	??_C@_04KPNMEJBL@SXBD@				; `string'
PUBLIC	??_C@_04JIGJKPAP@SXBQ@				; `string'
PUBLIC	??_C@_04LFDBCIIA@SXWD@				; `string'
PUBLIC	??_C@_04ICIEMOJE@SXWQ@				; `string'
PUBLIC	??_C@_04JMOENDLN@SXDQ@				; `string'
PUBLIC	??_C@_04MDCDGKPI@ZXBW@				; `string'
PUBLIC	??_C@_04KCMMCLGK@ZXBD@				; `string'
PUBLIC	??_C@_04JFHJMNHO@ZXBQ@				; `string'
PUBLIC	??_C@_04LICBEKPB@ZXWD@				; `string'
PUBLIC	??_C@_04IPJEKMOF@ZXWQ@				; `string'
PUBLIC	??_C@_04JBPELBMM@ZXDQ@				; `string'
PUBLIC	??_C@_05NHDOEHKD@PUSHB@				; `string'
PUBLIC	??_C@_05OAILKBLH@PUSHW@				; `string'
PUBLIC	??_C@_05IBGEOACF@PUSHD@				; `string'
PUBLIC	??_C@_05LGNBAGDB@PUSHQ@				; `string'
PUBLIC	??_C@_04GMEKIMHF@POPB@				; `string'
PUBLIC	??_C@_04FLPPGKGB@POPW@				; `string'
PUBLIC	??_C@_04DKBACLPD@POPD@				; `string'
PUBLIC	??_C@_04NKFMNOH@POPQ@				; `string'
PUBLIC	??_C@_05COPILBNH@NPOPB@				; `string'
PUBLIC	??_C@_05BJENFHMD@NPOPW@				; `string'
PUBLIC	??_C@_05HIKCBGFB@NPOPD@				; `string'
PUBLIC	??_C@_05EPBHPAEF@NPOPQ@				; `string'
PUBLIC	??_C@_04PNOELOOK@ADDB@				; `string'
PUBLIC	??_C@_04MKFBFIPO@ADDW@				; `string'
PUBLIC	??_C@_04KLLOBJGM@ADDD@				; `string'
PUBLIC	??_C@_04JMALPPHI@ADDQ@				; `string'
PUBLIC	??_C@_04LOMDGEA@SUBB@				; `string'
PUBLIC	??_C@_04DMFJNAFE@SUBW@				; `string'
PUBLIC	??_C@_04FNLGJBMG@SUBD@				; `string'
PUBLIC	??_C@_04GKADHHNC@SUBQ@				; `string'
PUBLIC	??_C@_04NOKCDCKJ@MULB@				; `string'
PUBLIC	??_C@_04OJBHNELN@MULW@				; `string'
PUBLIC	??_C@_04IIPIJFCP@MULD@				; `string'
PUBLIC	??_C@_04LPENHDDL@MULQ@				; `string'
PUBLIC	??_C@_04NIMMJOFJ@DIVB@				; `string'
PUBLIC	??_C@_04OPHJHIEN@DIVW@				; `string'
PUBLIC	??_C@_04IOJGDJNP@DIVD@				; `string'
PUBLIC	??_C@_04LJCDNPML@DIVQ@				; `string'
PUBLIC	??_C@_04JCFJFOIO@ANDB@				; `string'
PUBLIC	??_C@_04KFOMLIJK@ANDW@				; `string'
PUBLIC	??_C@_04MEADPJAI@ANDD@				; `string'
PUBLIC	??_C@_04PDLGBPBM@ANDQ@				; `string'
PUBLIC	??_C@_03LALLLPNB@ORB@				; `string'
PUBLIC	??_C@_03IHAOFJMF@ORW@				; `string'
PUBLIC	??_C@_03OGOBBIFH@ORD@				; `string'
PUBLIC	??_C@_03NBFEPOED@ORQ@				; `string'
PUBLIC	??_C@_04FPLOBDNK@XORB@				; `string'
PUBLIC	??_C@_04GIALPFMO@XORW@				; `string'
PUBLIC	??_C@_04JOELEFM@XORD@				; `string'
PUBLIC	??_C@_04DOFBFCEI@XORQ@				; `string'
PUBLIC	??_C@_04KDABJEAI@SHLB@				; `string'
PUBLIC	??_C@_04JELEHCBM@SHLW@				; `string'
PUBLIC	??_C@_04PFFLDDIO@SHLD@				; `string'
PUBLIC	??_C@_04MCOONFJK@SHLQ@				; `string'
PUBLIC	??_C@_04LFLJBKHC@SHRB@				; `string'
PUBLIC	??_C@_04ICAMPMGG@SHRW@				; `string'
PUBLIC	??_C@_04ODODLNPE@SHRD@				; `string'
PUBLIC	??_C@_04NEFGFLOA@SHRQ@				; `string'
PUBLIC	??_C@_04OBADKJKM@CMPB@				; `string'
PUBLIC	??_C@_04NGLGEPLI@CMPW@				; `string'
PUBLIC	??_C@_04LHFJAOCK@CMPD@				; `string'
PUBLIC	??_C@_04IAOMOIDO@CMPQ@				; `string'
PUBLIC	??_C@_03OIOLNLHN@JMP@				; `string'
PUBLIC	??_C@_04POHBCBG@JMPI@				; `string'
PUBLIC	??_C@_02CBHPCOPC@JL@				; `string'
PUBLIC	??_C@_03NOJMFHFO@JLE@				; `string'
PUBLIC	??_C@_02MCILPHDJ@JG@				; `string'
PUBLIC	??_C@_03NCMJLILP@JGE@				; `string'
PUBLIC	??_C@_02DNOHJLCF@JZ@				; `string'
PUBLIC	??_C@_03BAECINKO@JNZ@				; `string'
PUBLIC	??_C@_04CAGKGBIO@CALL@				; `string'
PUBLIC	??_C@_03BHDJDALB@RET@				; `string'
PUBLIC	??_C@_07EMAGKOAM@X86CALL@			; `string'
PUBLIC	??_C@_06CFKEFNFF@EDITSP@			; `string'
PUBLIC	??_C@_04NGEAOILB@STSP@				; `string'
PUBLIC	??_C@_04GEOJLPHN@LDSP@				; `string'
PUBLIC	??_C@_04MHPBMOBH@STIP@				; `string'
PUBLIC	??_C@_04HFFIJJNL@LDIP@				; `string'
PUBLIC	??_C@_05MDEPALLB@SWAPB@				; `string'
PUBLIC	??_C@_05PEPKONKF@SWAPW@				; `string'
PUBLIC	??_C@_05JFBFKMDH@SWAPD@				; `string'
PUBLIC	??_C@_05KCKAEKCD@SWAPQ@				; `string'
PUBLIC	??_C@_04IIPHEAHK@DECB@				; `string'
PUBLIC	??_C@_04LPECKGGO@DECW@				; `string'
PUBLIC	??_C@_04NOKNOHPM@DECD@				; `string'
PUBLIC	??_C@_04OJBIABOI@DECQ@				; `string'
PUBLIC	??_C@_04KHGGADMK@INCB@				; `string'
PUBLIC	??_C@_04JANDOFNO@INCW@				; `string'
PUBLIC	??_C@_04PBDMKEEM@INCD@				; `string'
PUBLIC	??_C@_04MGIJECFI@INCQ@				; `string'
PUBLIC	??_C@_06BPAFKAAE@SWAPBQ@			; `string'
PUBLIC	??_C@_06FOIMBJP@SWAPWQ@				; `string'
PUBLIC	??_C@_06BLIINMLG@SWAPDQ@			; `string'
PUBLIC	??_C@_04BMBNMPKO@LDSB@				; `string'
PUBLIC	??_C@_04CLKICJLK@LDSW@				; `string'
PUBLIC	??_C@_04EKEHGICI@LDSD@				; `string'
PUBLIC	??_C@_04HNPCIODM@LDSQ@				; `string'
PUBLIC	??_C@_04KOLEJIGC@STSB@				; `string'
PUBLIC	??_C@_04JJABHOHG@STSW@				; `string'
PUBLIC	??_C@_04PIOODPOE@STSD@				; `string'
PUBLIC	??_C@_04MPFLNJPA@STSQ@				; `string'
PUBLIC	??_C@_05EDKPJED@LDBPB@				; `string'
PUBLIC	??_C@_05DDIPBPFH@LDBPW@				; `string'
PUBLIC	??_C@_05FCGAFOMF@LDBPD@				; `string'
PUBLIC	??_C@_05GFNFLINB@LDBPQ@				; `string'
PUBLIC	??_C@_05JGFKNOIP@STBPB@				; `string'
PUBLIC	??_C@_05KBOPDIJL@STBPW@				; `string'
PUBLIC	??_C@_05MAAAHJAJ@STBPD@				; `string'
PUBLIC	??_C@_05PHLFJPBN@STBPQ@				; `string'
PUBLIC	?RegisterBindings@@3PAPEBDA			; RegisterBindings
PUBLIC	??_C@_02MJBLCCBH@BP@				; `string'
PUBLIC	??_C@_02KJNLNLIB@R1@				; `string'
PUBLIC	??_C@_02ICPGIIEC@R2@				; `string'
PUBLIC	??_C@_02JLONLJAD@R3@				; `string'
PUBLIC	??_C@_02NEKMCPME@R4@				; `string'
PUBLIC	??_C@_02MNLHBOIF@R5@				; `string'
PUBLIC	??_C@_02OGJKENEG@R6@				; `string'
PUBLIC	??_C@_02PPIBHMAH@R7@				; `string'
PUBLIC	??_C@_02HIBJGAMI@R8@				; `string'
PUBLIC	??_C@_02GBACFBIJ@R9@				; `string'
PUBLIC	??_C@_03EFFAFOJO@R10@				; `string'
PUBLIC	??_C@_03FMELGPNP@R11@				; `string'
PUBLIC	??_C@_03HHGGDMBM@R12@				; `string'
PUBLIC	??_C@_03GOHNANFN@R13@				; `string'
PUBLIC	??_C@_03CBDMJLJK@R14@				; `string'
PUBLIC	??_C@_03DICHKKNL@R15@				; `string'
PUBLIC	??_C@_03BDAKPJBI@R16@				; `string'
PUBLIC	??_C@_03KBBMIFJ@R17@				; `string'
PUBLIC	??_C@_03INIJNEJG@R18@				; `string'
PUBLIC	??_C@_03JEJCOFNH@R19@				; `string'
PUBLIC	??_C@_03EHBGOAMH@R20@				; `string'
PUBLIC	??_C@_03FOANNBIG@R21@				; `string'
PUBLIC	??_C@_03HFCAICEF@R22@				; `string'
PUBLIC	??_C@_03GMDLLDAE@R23@				; `string'
PUBLIC	??_C@_03CDHKCFMD@R24@				; `string'
PUBLIC	??_C@_03DKGBBEIC@R25@				; `string'
PUBLIC	??_C@_03BBEMEHEB@R26@				; `string'
PUBLIC	??_C@_03IFHHGAA@R27@				; `string'
PUBLIC	??_C@_03IPMPGKMP@R28@				; `string'
PUBLIC	??_C@_03JGNEFLIO@R29@				; `string'
PUBLIC	??_C@_03EGNEIKPA@R30@				; `string'
PUBLIC	??_C@_03FPMPLLLB@R31@				; `string'
PUBLIC	??_7?$basic_filebuf@DU?$char_traits@D@std@@@std@@6B@ ; std::basic_filebuf<char,std::char_traits<char> >::`vftable'
PUBLIC	??_7?$basic_ifstream@DU?$char_traits@D@std@@@std@@6B@ ; std::basic_ifstream<char,std::char_traits<char> >::`vftable'
PUBLIC	??_8?$basic_ifstream@DU?$char_traits@D@std@@@std@@7B@ ; std::basic_ifstream<char,std::char_traits<char> >::`vbtable'
PUBLIC	??_C@_0BO@EBMDFMC@THIS?5IS?5THE?5START?5XDDDDDD?$CB?$CB?$CB?$CB@ ; `string'
PUBLIC	??_C@_01CLKCMJKC@?5@				; `string'
PUBLIC	??_C@_0BH@MGKFCHMA@Ur?5out?5of?5memory?5son?4?6@ ; `string'
PUBLIC	??_C@_05PDJBBECF@pause@				; `string'
PUBLIC	?_Stinit@?1??_Init@?$basic_filebuf@DU?$char_traits@D@std@@@std@@IEAAXPEAU_iobuf@@W4_Initfl@23@@Z@4U_Mbstatet@@A ; `std::basic_filebuf<char,std::char_traits<char> >::_Init'::`2'::_Stinit
PUBLIC	??_C@_0BI@CFPLBAOH@invalid?5string?5position@	; `string'
PUBLIC	?_Psave@?$_Facetptr@V?$codecvt@DDU_Mbstatet@@@std@@@std@@2PEBVfacet@locale@2@EB ; std::_Facetptr<std::codecvt<char,char,_Mbstatet> >::_Psave
PUBLIC	??_C@_0BA@FOIKENOD@vector?5too?5long@		; `string'
PUBLIC	??_R4?$basic_filebuf@DU?$char_traits@D@std@@@std@@6B@ ; std::basic_filebuf<char,std::char_traits<char> >::`RTTI Complete Object Locator'
PUBLIC	??_R0?AV?$basic_filebuf@DU?$char_traits@D@std@@@std@@@8 ; std::basic_filebuf<char,std::char_traits<char> > `RTTI Type Descriptor'
PUBLIC	??_R3?$basic_filebuf@DU?$char_traits@D@std@@@std@@8 ; std::basic_filebuf<char,std::char_traits<char> >::`RTTI Class Hierarchy Descriptor'
PUBLIC	??_R2?$basic_filebuf@DU?$char_traits@D@std@@@std@@8 ; std::basic_filebuf<char,std::char_traits<char> >::`RTTI Base Class Array'
PUBLIC	??_R1A@?0A@EA@?$basic_filebuf@DU?$char_traits@D@std@@@std@@8 ; std::basic_filebuf<char,std::char_traits<char> >::`RTTI Base Class Descriptor at (0,-1,0,64)'
PUBLIC	??_R1A@?0A@EA@?$basic_streambuf@DU?$char_traits@D@std@@@std@@8 ; std::basic_streambuf<char,std::char_traits<char> >::`RTTI Base Class Descriptor at (0,-1,0,64)'
PUBLIC	??_R0?AV?$basic_streambuf@DU?$char_traits@D@std@@@std@@@8 ; std::basic_streambuf<char,std::char_traits<char> > `RTTI Type Descriptor'
PUBLIC	??_R3?$basic_streambuf@DU?$char_traits@D@std@@@std@@8 ; std::basic_streambuf<char,std::char_traits<char> >::`RTTI Class Hierarchy Descriptor'
PUBLIC	??_R2?$basic_streambuf@DU?$char_traits@D@std@@@std@@8 ; std::basic_streambuf<char,std::char_traits<char> >::`RTTI Base Class Array'
PUBLIC	??_R4?$basic_ifstream@DU?$char_traits@D@std@@@std@@6B@ ; std::basic_ifstream<char,std::char_traits<char> >::`RTTI Complete Object Locator'
PUBLIC	??_R0?AV?$basic_ifstream@DU?$char_traits@D@std@@@std@@@8 ; std::basic_ifstream<char,std::char_traits<char> > `RTTI Type Descriptor'
PUBLIC	??_R3?$basic_ifstream@DU?$char_traits@D@std@@@std@@8 ; std::basic_ifstream<char,std::char_traits<char> >::`RTTI Class Hierarchy Descriptor'
PUBLIC	??_R2?$basic_ifstream@DU?$char_traits@D@std@@@std@@8 ; std::basic_ifstream<char,std::char_traits<char> >::`RTTI Base Class Array'
PUBLIC	??_R1A@?0A@EA@?$basic_ifstream@DU?$char_traits@D@std@@@std@@8 ; std::basic_ifstream<char,std::char_traits<char> >::`RTTI Base Class Descriptor at (0,-1,0,64)'
PUBLIC	??_R1A@?0A@EA@?$basic_istream@DU?$char_traits@D@std@@@std@@8 ; std::basic_istream<char,std::char_traits<char> >::`RTTI Base Class Descriptor at (0,-1,0,64)'
PUBLIC	??_R0?AV?$basic_istream@DU?$char_traits@D@std@@@std@@@8 ; std::basic_istream<char,std::char_traits<char> > `RTTI Type Descriptor'
PUBLIC	??_R3?$basic_istream@DU?$char_traits@D@std@@@std@@8 ; std::basic_istream<char,std::char_traits<char> >::`RTTI Class Hierarchy Descriptor'
PUBLIC	??_R2?$basic_istream@DU?$char_traits@D@std@@@std@@8 ; std::basic_istream<char,std::char_traits<char> >::`RTTI Base Class Array'
PUBLIC	??_R1A@A@3FA@?$basic_ios@DU?$char_traits@D@std@@@std@@8 ; std::basic_ios<char,std::char_traits<char> >::`RTTI Base Class Descriptor at (0,0,4,80)'
PUBLIC	??_R0?AV?$basic_ios@DU?$char_traits@D@std@@@std@@@8 ; std::basic_ios<char,std::char_traits<char> > `RTTI Type Descriptor'
PUBLIC	??_R3?$basic_ios@DU?$char_traits@D@std@@@std@@8	; std::basic_ios<char,std::char_traits<char> >::`RTTI Class Hierarchy Descriptor'
PUBLIC	??_R2?$basic_ios@DU?$char_traits@D@std@@@std@@8	; std::basic_ios<char,std::char_traits<char> >::`RTTI Base Class Array'
PUBLIC	??_R1A@?0A@EA@?$basic_ios@DU?$char_traits@D@std@@@std@@8 ; std::basic_ios<char,std::char_traits<char> >::`RTTI Base Class Descriptor at (0,-1,0,64)'
PUBLIC	??_R1A@?0A@EA@ios_base@std@@8			; std::ios_base::`RTTI Base Class Descriptor at (0,-1,0,64)'
PUBLIC	??_R0?AVios_base@std@@@8			; std::ios_base `RTTI Type Descriptor'
PUBLIC	??_R3ios_base@std@@8				; std::ios_base::`RTTI Class Hierarchy Descriptor'
PUBLIC	??_R2ios_base@std@@8				; std::ios_base::`RTTI Base Class Array'
PUBLIC	??_R17?0A@EA@?$_Iosb@H@std@@8			; std::_Iosb<int>::`RTTI Base Class Descriptor at (8,-1,0,64)'
PUBLIC	??_R0?AV?$_Iosb@H@std@@@8			; std::_Iosb<int> `RTTI Type Descriptor'
PUBLIC	??_R3?$_Iosb@H@std@@8				; std::_Iosb<int>::`RTTI Class Hierarchy Descriptor'
PUBLIC	??_R2?$_Iosb@H@std@@8				; std::_Iosb<int>::`RTTI Base Class Array'
PUBLIC	??_R1A@?0A@EA@?$_Iosb@H@std@@8			; std::_Iosb<int>::`RTTI Base Class Descriptor at (0,-1,0,64)'
PUBLIC	??_R1A@A@3EA@ios_base@std@@8			; std::ios_base::`RTTI Base Class Descriptor at (0,0,4,64)'
PUBLIC	??_R17A@3EA@?$_Iosb@H@std@@8			; std::_Iosb<int>::`RTTI Base Class Descriptor at (8,0,4,64)'
PUBLIC	??_R4exception@std@@6B@				; std::exception::`RTTI Complete Object Locator'
PUBLIC	??_R3exception@std@@8				; std::exception::`RTTI Class Hierarchy Descriptor'
PUBLIC	??_R2exception@std@@8				; std::exception::`RTTI Base Class Array'
PUBLIC	??_R1A@?0A@EA@exception@std@@8			; std::exception::`RTTI Base Class Descriptor at (0,-1,0,64)'
PUBLIC	??_R4bad_alloc@std@@6B@				; std::bad_alloc::`RTTI Complete Object Locator'
PUBLIC	??_R3bad_alloc@std@@8				; std::bad_alloc::`RTTI Class Hierarchy Descriptor'
PUBLIC	??_R2bad_alloc@std@@8				; std::bad_alloc::`RTTI Base Class Array'
PUBLIC	??_R1A@?0A@EA@bad_alloc@std@@8			; std::bad_alloc::`RTTI Base Class Descriptor at (0,-1,0,64)'
PUBLIC	??_R4bad_array_new_length@std@@6B@		; std::bad_array_new_length::`RTTI Complete Object Locator'
PUBLIC	??_R3bad_array_new_length@std@@8		; std::bad_array_new_length::`RTTI Class Hierarchy Descriptor'
PUBLIC	??_R2bad_array_new_length@std@@8		; std::bad_array_new_length::`RTTI Base Class Array'
PUBLIC	??_R1A@?0A@EA@bad_array_new_length@std@@8	; std::bad_array_new_length::`RTTI Base Class Descriptor at (0,-1,0,64)'
PUBLIC	??_R4bad_cast@std@@6B@				; std::bad_cast::`RTTI Complete Object Locator'
PUBLIC	??_R3bad_cast@std@@8				; std::bad_cast::`RTTI Class Hierarchy Descriptor'
PUBLIC	??_R2bad_cast@std@@8				; std::bad_cast::`RTTI Base Class Array'
PUBLIC	??_R1A@?0A@EA@bad_cast@std@@8			; std::bad_cast::`RTTI Base Class Descriptor at (0,-1,0,64)'
EXTRN	??2@YAPEAX_K@Z:PROC				; operator new
EXTRN	??3@YAXPEAX_K@Z:PROC				; operator delete
EXTRN	__std_terminate:PROC
EXTRN	__imp__invalid_parameter_noinfo_noreturn:PROC
EXTRN	__imp_??0_Lockit@std@@QEAA@H@Z:PROC
EXTRN	__imp_??1_Lockit@std@@QEAA@XZ:PROC
EXTRN	__imp___acrt_iob_func:PROC
EXTRN	__imp__get_stream_buffer_pointers:PROC
EXTRN	__imp_fclose:PROC
EXTRN	__imp_fflush:PROC
EXTRN	__imp_fgetc:PROC
EXTRN	__imp_fgetpos:PROC
EXTRN	__imp_fputc:PROC
EXTRN	__imp_fread:PROC
EXTRN	__imp_fsetpos:PROC
EXTRN	__imp__fseeki64:PROC
EXTRN	__imp_fwrite:PROC
EXTRN	__imp_setvbuf:PROC
EXTRN	__imp_ungetc:PROC
EXTRN	__imp__lock_file:PROC
EXTRN	__imp__unlock_file:PROC
EXTRN	__imp___stdio_common_vfprintf:PROC
EXTRN	__imp__errno:PROC
EXTRN	__imp_free:PROC
EXTRN	__imp_malloc:PROC
EXTRN	__imp_realloc:PROC
EXTRN	__imp_rand:PROC
EXTRN	__imp_strtol:PROC
EXTRN	__imp_system:PROC
EXTRN	__std_exception_copy:PROC
EXTRN	__std_exception_destroy:PROC
EXTRN	??_Eexception@std@@UEAAPEAXI@Z:PROC		; std::exception::`vector deleting destructor'
EXTRN	??_Ebad_alloc@std@@UEAAPEAXI@Z:PROC		; std::bad_alloc::`vector deleting destructor'
EXTRN	??_Ebad_array_new_length@std@@UEAAPEAXI@Z:PROC	; std::bad_array_new_length::`vector deleting destructor'
EXTRN	?_Xinvalid_argument@std@@YAXPEBD@Z:PROC		; std::_Xinvalid_argument
EXTRN	?_Xlength_error@std@@YAXPEBD@Z:PROC		; std::_Xlength_error
EXTRN	?_Xout_of_range@std@@YAXPEBD@Z:PROC		; std::_Xout_of_range
EXTRN	__imp_isalpha:PROC
EXTRN	__imp_toupper:PROC
EXTRN	??_Ebad_cast@std@@UEAAPEAXI@Z:PROC		; std::bad_cast::`vector deleting destructor'
EXTRN	?_Facet_Register@std@@YAXPEAV_Facet_base@1@@Z:PROC ; std::_Facet_Register
EXTRN	__imp_??Bid@locale@std@@QEAA_KXZ:PROC
EXTRN	?_Getgloballocale@locale@std@@CAPEAV_Locimp@12@XZ:PROC ; std::locale::_Getgloballocale
EXTRN	__imp_?always_noconv@codecvt_base@std@@QEBA_NXZ:PROC
EXTRN	__imp_?in@?$codecvt@DDU_Mbstatet@@@std@@QEBAHAEAU_Mbstatet@@PEBD1AEAPEBDPEAD3AEAPEAD@Z:PROC
EXTRN	__imp_?out@?$codecvt@DDU_Mbstatet@@@std@@QEBAHAEAU_Mbstatet@@PEBD1AEAPEBDPEAD3AEAPEAD@Z:PROC
EXTRN	__imp_?unshift@?$codecvt@DDU_Mbstatet@@@std@@QEBAHAEAU_Mbstatet@@PEAD1AEAPEAD@Z:PROC
EXTRN	__imp_?_Getcat@?$codecvt@DDU_Mbstatet@@@std@@SA_KPEAPEBVfacet@locale@2@PEBV42@@Z:PROC
EXTRN	__imp_??0?$basic_streambuf@DU?$char_traits@D@std@@@std@@IEAA@XZ:PROC
EXTRN	__imp_??1?$basic_streambuf@DU?$char_traits@D@std@@@std@@UEAA@XZ:PROC
EXTRN	__imp_?getloc@?$basic_streambuf@DU?$char_traits@D@std@@@std@@QEBA?AVlocale@2@XZ:PROC
EXTRN	__imp_?sbumpc@?$basic_streambuf@DU?$char_traits@D@std@@@std@@QEAAHXZ:PROC
EXTRN	__imp_?sgetc@?$basic_streambuf@DU?$char_traits@D@std@@@std@@QEAAHXZ:PROC
EXTRN	__imp_?snextc@?$basic_streambuf@DU?$char_traits@D@std@@@std@@QEAAHXZ:PROC
EXTRN	__imp_?_Pninc@?$basic_streambuf@DU?$char_traits@D@std@@@std@@IEAAPEADXZ:PROC
EXTRN	__imp_?_Init@?$basic_streambuf@DU?$char_traits@D@std@@@std@@IEAAXXZ:PROC
EXTRN	__imp_?xsgetn@?$basic_streambuf@DU?$char_traits@D@std@@@std@@MEAA_JPEAD_J@Z:PROC
EXTRN	__imp_?xsputn@?$basic_streambuf@DU?$char_traits@D@std@@@std@@MEAA_JPEBD_J@Z:PROC
EXTRN	__imp_??1?$basic_ios@DU?$char_traits@D@std@@@std@@UEAA@XZ:PROC
EXTRN	__imp_?setstate@?$basic_ios@DU?$char_traits@D@std@@@std@@QEAAXH_N@Z:PROC
EXTRN	__imp_?widen@?$basic_ios@DU?$char_traits@D@std@@@std@@QEBADD@Z:PROC
EXTRN	__imp_??0?$basic_ios@DU?$char_traits@D@std@@@std@@IEAA@XZ:PROC
EXTRN	__imp_??0?$basic_istream@DU?$char_traits@D@std@@@std@@QEAA@PEAV?$basic_streambuf@DU?$char_traits@D@std@@@1@_N@Z:PROC
EXTRN	__imp_??1?$basic_istream@DU?$char_traits@D@std@@@std@@UEAA@XZ:PROC
EXTRN	__imp_?_Ipfx@?$basic_istream@DU?$char_traits@D@std@@@std@@QEAA_N_N@Z:PROC
EXTRN	?_Random_device@std@@YAIXZ:PROC			; std::_Random_device
EXTRN	?_Fiopen@std@@YAPEAU_iobuf@@PEBDHH@Z:PROC	; std::_Fiopen
EXTRN	VmEnter:PROC
EXTRN	ViVmExit:PROC
EXTRN	ViNop:PROC
EXTRN	ViLdib:PROC
EXTRN	ViLdiw:PROC
EXTRN	ViLdid:PROC
EXTRN	ViLdiq:PROC
EXTRN	ViLdibsxw:PROC
EXTRN	ViLdibsxd:PROC
EXTRN	ViLdibsxq:PROC
EXTRN	ViLdiwsxd:PROC
EXTRN	ViLdiwsxq:PROC
EXTRN	ViLdidsxq:PROC
EXTRN	ViLdibzxw:PROC
EXTRN	ViLdibzxd:PROC
EXTRN	ViLdibzxq:PROC
EXTRN	ViLdiwzxd:PROC
EXTRN	ViLdiwzxq:PROC
EXTRN	ViLdidzxq:PROC
EXTRN	ViLdab:PROC
EXTRN	ViLdaw:PROC
EXTRN	ViLdad:PROC
EXTRN	ViLdaq:PROC
EXTRN	ViStab:PROC
EXTRN	ViStaw:PROC
EXTRN	ViStad:PROC
EXTRN	ViStaq:PROC
EXTRN	ViSxbw:PROC
EXTRN	ViSxbd:PROC
EXTRN	ViSxbq:PROC
EXTRN	ViSxwd:PROC
EXTRN	ViSxwq:PROC
EXTRN	ViSxdq:PROC
EXTRN	ViZxbw:PROC
EXTRN	ViZxbd:PROC
EXTRN	ViZxbq:PROC
EXTRN	ViZxwd:PROC
EXTRN	ViZxwq:PROC
EXTRN	ViZxdq:PROC
EXTRN	ViPushb:PROC
EXTRN	ViPushw:PROC
EXTRN	ViPushd:PROC
EXTRN	ViPushq:PROC
EXTRN	ViPopb:PROC
EXTRN	ViPopw:PROC
EXTRN	ViPopd:PROC
EXTRN	ViPopq:PROC
EXTRN	ViNpopb:PROC
EXTRN	ViNpopw:PROC
EXTRN	ViNpopd:PROC
EXTRN	ViNpopq:PROC
EXTRN	ViAddb:PROC
EXTRN	ViAddw:PROC
EXTRN	ViAddd:PROC
EXTRN	ViAddq:PROC
EXTRN	ViSubb:PROC
EXTRN	ViSubw:PROC
EXTRN	ViSubd:PROC
EXTRN	ViSubq:PROC
EXTRN	ViMulb:PROC
EXTRN	ViMulw:PROC
EXTRN	ViMuld:PROC
EXTRN	ViMulq:PROC
EXTRN	ViDivb:PROC
EXTRN	ViDivw:PROC
EXTRN	ViDivd:PROC
EXTRN	ViDivq:PROC
EXTRN	ViAndb:PROC
EXTRN	ViAndw:PROC
EXTRN	ViAndd:PROC
EXTRN	ViAndq:PROC
EXTRN	ViOrb:PROC
EXTRN	ViOrw:PROC
EXTRN	ViOrd:PROC
EXTRN	ViOrq:PROC
EXTRN	ViXorb:PROC
EXTRN	ViXorw:PROC
EXTRN	ViXord:PROC
EXTRN	ViXorq:PROC
EXTRN	ViShlb:PROC
EXTRN	ViShlw:PROC
EXTRN	ViShld:PROC
EXTRN	ViShlq:PROC
EXTRN	ViShrb:PROC
EXTRN	ViShrw:PROC
EXTRN	ViShrd:PROC
EXTRN	ViShrq:PROC
EXTRN	ViCmpb:PROC
EXTRN	ViCmpw:PROC
EXTRN	ViCmpd:PROC
EXTRN	ViCmpq:PROC
EXTRN	ViJmp:PROC
EXTRN	ViJmpi:PROC
EXTRN	ViJl:PROC
EXTRN	ViJle:PROC
EXTRN	ViJg:PROC
EXTRN	ViJge:PROC
EXTRN	ViJz:PROC
EXTRN	ViJnz:PROC
EXTRN	ViCall:PROC
EXTRN	ViRet:PROC
EXTRN	ViX86Call:PROC
EXTRN	ViEditsp:PROC
EXTRN	ViStsp:PROC
EXTRN	ViLdsp:PROC
EXTRN	ViStip:PROC
EXTRN	ViLdip:PROC
EXTRN	ViSwapb:PROC
EXTRN	ViSwapw:PROC
EXTRN	ViSwapd:PROC
EXTRN	ViSwapq:PROC
EXTRN	ViDecb:PROC
EXTRN	ViDecw:PROC
EXTRN	ViDecd:PROC
EXTRN	ViDecq:PROC
EXTRN	ViIncb:PROC
EXTRN	ViIncw:PROC
EXTRN	ViIncd:PROC
EXTRN	ViIncq:PROC
EXTRN	ViSwapbq:PROC
EXTRN	ViSwapwq:PROC
EXTRN	ViSwapdq:PROC
EXTRN	ViLdsb:PROC
EXTRN	ViLdsw:PROC
EXTRN	ViLdsd:PROC
EXTRN	ViLdsq:PROC
EXTRN	ViStsb:PROC
EXTRN	ViStsw:PROC
EXTRN	ViStsd:PROC
EXTRN	ViStsq:PROC
EXTRN	ViLdbpb:PROC
EXTRN	ViLdbpw:PROC
EXTRN	ViLdbpd:PROC
EXTRN	ViLdbpq:PROC
EXTRN	ViStbpb:PROC
EXTRN	ViStbpw:PROC
EXTRN	ViStbpd:PROC
EXTRN	ViStbpq:PROC
EXTRN	??_E?$basic_filebuf@DU?$char_traits@D@std@@@std@@UEAAPEAXI@Z:PROC ; std::basic_filebuf<char,std::char_traits<char> >::`vector deleting destructor'
EXTRN	??_E?$basic_ifstream@DU?$char_traits@D@std@@@std@@UEAAPEAXI@Z:PROC ; std::basic_ifstream<char,std::char_traits<char> >::`vector deleting destructor'
EXTRN	??1?$basic_streambuf@DU?$char_traits@D@std@@@std@@UEAA@XZ:PROC ; std::basic_streambuf<char,std::char_traits<char> >::~basic_streambuf<char,std::char_traits<char> >
EXTRN	??1_Lockit@std@@QEAA@XZ:PROC			; std::_Lockit::~_Lockit
EXTRN	?showmanyc@?$basic_streambuf@DU?$char_traits@D@std@@@std@@MEAA_JXZ:PROC ; std::basic_streambuf<char,std::char_traits<char> >::showmanyc
EXTRN	_CxxThrowException:PROC
EXTRN	__CxxFrameHandler4:PROC
EXTRN	__GSHandlerCheck:PROC
EXTRN	__GSHandlerCheck_EH4:PROC
EXTRN	__chkstk:PROC
EXTRN	__security_check_cookie:PROC
EXTRN	memchr:PROC
EXTRN	memcmp:PROC
EXTRN	memcpy:PROC
EXTRN	memmove:PROC
EXTRN	memset:PROC
EXTRN	??_7type_info@@6B@:BYTE				; type_info::`vftable'
EXTRN	__imp_?id@?$codecvt@DDU_Mbstatet@@@std@@2V0locale@2@A:QWORD
EXTRN	__ImageBase:BYTE
EXTRN	__security_cookie:QWORD
;	COMDAT ?_OptionsStorage@?1??__local_stdio_printf_options@@9@4_KA
_BSS	SEGMENT
?_OptionsStorage@?1??__local_stdio_printf_options@@9@4_KA DQ 01H DUP (?) ; `__local_stdio_printf_options'::`2'::_OptionsStorage
_BSS	ENDS
;	COMDAT ?_Stinit@?1??_Init@?$basic_filebuf@DU?$char_traits@D@std@@@std@@IEAAXPEAU_iobuf@@W4_Initfl@23@@Z@4U_Mbstatet@@A
_BSS	SEGMENT
?_Stinit@?1??_Init@?$basic_filebuf@DU?$char_traits@D@std@@@std@@IEAAXPEAU_iobuf@@W4_Initfl@23@@Z@4U_Mbstatet@@A DQ 01H DUP (?) ; `std::basic_filebuf<char,std::char_traits<char> >::_Init'::`2'::_Stinit
_BSS	ENDS
;	COMDAT ?_Psave@?$_Facetptr@V?$codecvt@DDU_Mbstatet@@@std@@@std@@2PEBVfacet@locale@2@EB
_BSS	SEGMENT
?_Psave@?$_Facetptr@V?$codecvt@DDU_Mbstatet@@@std@@@std@@2PEBVfacet@locale@2@EB DQ 01H DUP (?) ; std::_Facetptr<std::codecvt<char,char,_Mbstatet> >::_Psave
_BSS	ENDS
;	COMDAT pdata
pdata	SEGMENT
$pdata$_vfprintf_l DD imagerel $LN4
	DD	imagerel $LN4+81
	DD	imagerel $unwind$_vfprintf_l
pdata	ENDS
;	COMDAT pdata
pdata	SEGMENT
$pdata$printf DD imagerel $LN6
	DD	imagerel $LN6+82
	DD	imagerel $unwind$printf
pdata	ENDS
;	COMDAT pdata
pdata	SEGMENT
$pdata$??0exception@std@@QEAA@AEBV01@@Z DD imagerel $LN5
	DD	imagerel $LN5+50
	DD	imagerel $unwind$??0exception@std@@QEAA@AEBV01@@Z
pdata	ENDS
;	COMDAT pdata
pdata	SEGMENT
$pdata$??_Gexception@std@@UEAAPEAXI@Z DD imagerel $LN9
	DD	imagerel $LN9+66
	DD	imagerel $unwind$??_Gexception@std@@UEAAPEAXI@Z
pdata	ENDS
;	COMDAT pdata
pdata	SEGMENT
$pdata$??0bad_alloc@std@@QEAA@AEBV01@@Z DD imagerel $LN7
	DD	imagerel $LN7+60
	DD	imagerel $unwind$??0bad_alloc@std@@QEAA@AEBV01@@Z
pdata	ENDS
;	COMDAT pdata
pdata	SEGMENT
$pdata$??_Gbad_alloc@std@@UEAAPEAXI@Z DD imagerel $LN12
	DD	imagerel $LN12+66
	DD	imagerel $unwind$??_Gbad_alloc@std@@UEAAPEAXI@Z
pdata	ENDS
;	COMDAT pdata
pdata	SEGMENT
$pdata$??0bad_array_new_length@std@@QEAA@AEBV01@@Z DD imagerel $LN10
	DD	imagerel $LN10+60
	DD	imagerel $unwind$??0bad_array_new_length@std@@QEAA@AEBV01@@Z
pdata	ENDS
;	COMDAT pdata
pdata	SEGMENT
$pdata$??_Gbad_array_new_length@std@@UEAAPEAXI@Z DD imagerel $LN15
	DD	imagerel $LN15+66
	DD	imagerel $unwind$??_Gbad_array_new_length@std@@UEAAPEAXI@Z
pdata	ENDS
;	COMDAT pdata
pdata	SEGMENT
$pdata$?_Throw_bad_array_new_length@std@@YAXXZ DD imagerel $LN4
	DD	imagerel $LN4+32
	DD	imagerel $unwind$?_Throw_bad_array_new_length@std@@YAXXZ
pdata	ENDS
;	COMDAT pdata
pdata	SEGMENT
$pdata$?_Adjust_manually_vector_aligned@std@@YAXAEAPEAXAEA_K@Z DD imagerel $LN13
	DD	imagerel $LN13+43
	DD	imagerel $unwind$?_Adjust_manually_vector_aligned@std@@YAXAEAPEAXAEA_K@Z
pdata	ENDS
;	COMDAT pdata
pdata	SEGMENT
$pdata$?deallocate@?$allocator@D@std@@QEAAXQEAD_K@Z DD imagerel $LN21
	DD	imagerel $LN21+62
	DD	imagerel $unwind$?deallocate@?$allocator@D@std@@QEAAXQEAD_K@Z
pdata	ENDS
;	COMDAT pdata
pdata	SEGMENT
$pdata$?allocate@?$allocator@D@std@@QEAAPEAD_K@Z DD imagerel $LN27
	DD	imagerel $LN27+89
	DD	imagerel $unwind$?allocate@?$allocator@D@std@@QEAAPEAD_K@Z
pdata	ENDS
;	COMDAT pdata
pdata	SEGMENT
$pdata$?copy@?$_Narrow_char_traits@DH@std@@SAPEADQEADQEBD_K@Z DD imagerel $LN5
	DD	imagerel $LN5+23
	DD	imagerel $unwind$?copy@?$_Narrow_char_traits@DH@std@@SAPEADQEADQEBD_K@Z
pdata	ENDS
;	COMDAT pdata
pdata	SEGMENT
$pdata$?_Xlen_string@std@@YAXXZ DD imagerel $LN4
	DD	imagerel $LN4+17
	DD	imagerel $unwind$?_Xlen_string@std@@YAXXZ
pdata	ENDS
;	COMDAT pdata
pdata	SEGMENT
$pdata$?_Check_offset@?$_String_val@U?$_Simple_types@D@std@@@std@@QEBAX_K@Z DD imagerel $LN7
	DD	imagerel $LN7+21
	DD	imagerel $unwind$?_Check_offset@?$_String_val@U?$_Simple_types@D@std@@@std@@QEBAX_K@Z
pdata	ENDS
;	COMDAT pdata
pdata	SEGMENT
$pdata$?_Xran@?$_String_val@U?$_Simple_types@D@std@@@std@@SAXXZ DD imagerel $LN4
	DD	imagerel $LN4+17
	DD	imagerel $unwind$?_Xran@?$_String_val@U?$_Simple_types@D@std@@@std@@SAXXZ
pdata	ENDS
;	COMDAT pdata
pdata	SEGMENT
$pdata$??0?$basic_string@DU?$char_traits@D@std@@V?$allocator@D@2@@std@@QEAA@AEBV01@@Z DD imagerel $LN50
	DD	imagerel $LN50+218
	DD	imagerel $unwind$??0?$basic_string@DU?$char_traits@D@std@@V?$allocator@D@2@@std@@QEAA@AEBV01@@Z
pdata	ENDS
;	COMDAT pdata
pdata	SEGMENT
$pdata$??0?$basic_string@DU?$char_traits@D@std@@V?$allocator@D@2@@std@@QEAA@AEBV01@_K1AEBV?$allocator@D@1@@Z DD imagerel $LN29
	DD	imagerel $LN29+83
	DD	imagerel $unwind$??0?$basic_string@DU?$char_traits@D@std@@V?$allocator@D@2@@std@@QEAA@AEBV01@_K1AEBV?$allocator@D@1@@Z
pdata	ENDS
;	COMDAT pdata
pdata	SEGMENT
$pdata$??0?$basic_string@DU?$char_traits@D@std@@V?$allocator@D@2@@std@@QEAA@QEBD@Z DD imagerel $LN16
	DD	imagerel $LN16+59
	DD	imagerel $unwind$??0?$basic_string@DU?$char_traits@D@std@@V?$allocator@D@2@@std@@QEAA@QEBD@Z
pdata	ENDS
;	COMDAT pdata
pdata	SEGMENT
$pdata$?_Construct_lv_contents@?$basic_string@DU?$char_traits@D@std@@V?$allocator@D@2@@std@@AEAAXAEBV12@@Z DD imagerel $LN44
	DD	imagerel $LN44+230
	DD	imagerel $unwind$?_Construct_lv_contents@?$basic_string@DU?$char_traits@D@std@@V?$allocator@D@2@@std@@AEAAXAEBV12@@Z
pdata	ENDS
;	COMDAT pdata
pdata	SEGMENT
$pdata$??1?$basic_string@DU?$char_traits@D@std@@V?$allocator@D@2@@std@@QEAA@XZ DD imagerel $LN30
	DD	imagerel $LN30+95
	DD	imagerel $unwind$??1?$basic_string@DU?$char_traits@D@std@@V?$allocator@D@2@@std@@QEAA@XZ
pdata	ENDS
;	COMDAT pdata
pdata	SEGMENT
$pdata$??4?$basic_string@DU?$char_traits@D@std@@V?$allocator@D@2@@std@@QEAAAEAV01@AEBV01@@Z DD imagerel $LN14
	DD	imagerel $LN14+42
	DD	imagerel $unwind$??4?$basic_string@DU?$char_traits@D@std@@V?$allocator@D@2@@std@@QEAAAEAV01@AEBV01@@Z
pdata	ENDS
;	COMDAT pdata
pdata	SEGMENT
$pdata$??Y?$basic_string@DU?$char_traits@D@std@@V?$allocator@D@2@@std@@QEAAAEAV01@D@Z DD imagerel $LN14
	DD	imagerel $LN14+86
	DD	imagerel $unwind$??Y?$basic_string@DU?$char_traits@D@std@@V?$allocator@D@2@@std@@QEAAAEAV01@D@Z
pdata	ENDS
;	COMDAT pdata
pdata	SEGMENT
$pdata$?assign@?$basic_string@DU?$char_traits@D@std@@V?$allocator@D@2@@std@@QEAAAEAV12@AEBV12@_K_K@Z DD imagerel $LN20
	DD	imagerel $LN20+54
	DD	imagerel $unwind$?assign@?$basic_string@DU?$char_traits@D@std@@V?$allocator@D@2@@std@@QEAAAEAV12@AEBV12@_K_K@Z
pdata	ENDS
;	COMDAT pdata
pdata	SEGMENT
$pdata$?assign@?$basic_string@DU?$char_traits@D@std@@V?$allocator@D@2@@std@@QEAAAEAV12@QEBD_K@Z DD imagerel $LN77
	DD	imagerel $LN77+139
	DD	imagerel $unwind$?assign@?$basic_string@DU?$char_traits@D@std@@V?$allocator@D@2@@std@@QEAAAEAV12@QEBD_K@Z
pdata	ENDS
;	COMDAT pdata
pdata	SEGMENT
$pdata$0$?assign@?$basic_string@DU?$char_traits@D@std@@V?$allocator@D@2@@std@@QEAAAEAV12@QEBD_K@Z DD imagerel $LN77+139
	DD	imagerel $LN77+330
	DD	imagerel $chain$0$?assign@?$basic_string@DU?$char_traits@D@std@@V?$allocator@D@2@@std@@QEAAAEAV12@QEBD_K@Z
pdata	ENDS
;	COMDAT pdata
pdata	SEGMENT
$pdata$2$?assign@?$basic_string@DU?$char_traits@D@std@@V?$allocator@D@2@@std@@QEAAAEAV12@QEBD_K@Z DD imagerel $LN77+330
	DD	imagerel $LN77+343
	DD	imagerel $chain$2$?assign@?$basic_string@DU?$char_traits@D@std@@V?$allocator@D@2@@std@@QEAAAEAV12@QEBD_K@Z
pdata	ENDS
;	COMDAT pdata
pdata	SEGMENT
$pdata$3$?assign@?$basic_string@DU?$char_traits@D@std@@V?$allocator@D@2@@std@@QEAAAEAV12@QEBD_K@Z DD imagerel $LN77+343
	DD	imagerel $LN77+349
	DD	imagerel $chain$3$?assign@?$basic_string@DU?$char_traits@D@std@@V?$allocator@D@2@@std@@QEAAAEAV12@QEBD_K@Z
pdata	ENDS
;	COMDAT pdata
pdata	SEGMENT
$pdata$?erase@?$basic_string@DU?$char_traits@D@std@@V?$allocator@D@2@@std@@QEAAAEAV12@_K@Z DD imagerel $LN18
	DD	imagerel $LN18+45
	DD	imagerel $unwind$?erase@?$basic_string@DU?$char_traits@D@std@@V?$allocator@D@2@@std@@QEAAAEAV12@_K@Z
pdata	ENDS
;	COMDAT pdata
pdata	SEGMENT
$pdata$?erase@?$basic_string@DU?$char_traits@D@std@@V?$allocator@D@2@@std@@QEAAAEAV12@_K_K@Z DD imagerel $LN22
	DD	imagerel $LN22+88
	DD	imagerel $unwind$?erase@?$basic_string@DU?$char_traits@D@std@@V?$allocator@D@2@@std@@QEAAAEAV12@_K_K@Z
pdata	ENDS
;	COMDAT pdata
pdata	SEGMENT
$pdata$?erase@?$basic_string@DU?$char_traits@D@std@@V?$allocator@D@2@@std@@QEAA?AV?$_String_iterator@V?$_String_val@U?$_Simple_types@D@std@@@std@@@2@V?$_String_const_iterator@V?$_String_val@U?$_Simple_types@D@std@@@std@@@2@@Z DD imagerel $LN53
	DD	imagerel $LN53+149
	DD	imagerel $unwind$?erase@?$basic_string@DU?$char_traits@D@std@@V?$allocator@D@2@@std@@QEAA?AV?$_String_iterator@V?$_String_val@U?$_Simple_types@D@std@@@std@@@2@V?$_String_const_iterator@V?$_String_val@U?$_Simple_types@D@std@@@std@@@2@@Z
pdata	ENDS
;	COMDAT pdata
pdata	SEGMENT
$pdata$?find@?$basic_string@DU?$char_traits@D@std@@V?$allocator@D@2@@std@@QEBA_KAEBV12@_K@Z DD imagerel $LN38
	DD	imagerel $LN38+81
	DD	imagerel $unwind$?find@?$basic_string@DU?$char_traits@D@std@@V?$allocator@D@2@@std@@QEBA_KAEBV12@_K@Z
pdata	ENDS
;	COMDAT pdata
pdata	SEGMENT
$pdata$2$?find@?$basic_string@DU?$char_traits@D@std@@V?$allocator@D@2@@std@@QEBA_KAEBV12@_K@Z DD imagerel $LN38+81
	DD	imagerel $LN38+222
	DD	imagerel $chain$2$?find@?$basic_string@DU?$char_traits@D@std@@V?$allocator@D@2@@std@@QEBA_KAEBV12@_K@Z
pdata	ENDS
;	COMDAT pdata
pdata	SEGMENT
$pdata$4$?find@?$basic_string@DU?$char_traits@D@std@@V?$allocator@D@2@@std@@QEBA_KAEBV12@_K@Z DD imagerel $LN38+222
	DD	imagerel $LN38+230
	DD	imagerel $chain$4$?find@?$basic_string@DU?$char_traits@D@std@@V?$allocator@D@2@@std@@QEBA_KAEBV12@_K@Z
pdata	ENDS
;	COMDAT pdata
pdata	SEGMENT
$pdata$5$?find@?$basic_string@DU?$char_traits@D@std@@V?$allocator@D@2@@std@@QEBA_KAEBV12@_K@Z DD imagerel $LN38+230
	DD	imagerel $LN38+246
	DD	imagerel $chain$5$?find@?$basic_string@DU?$char_traits@D@std@@V?$allocator@D@2@@std@@QEBA_KAEBV12@_K@Z
pdata	ENDS
;	COMDAT pdata
pdata	SEGMENT
$pdata$?substr@?$basic_string@DU?$char_traits@D@std@@V?$allocator@D@2@@std@@QEBA?AV12@_K0@Z DD imagerel $LN34
	DD	imagerel $LN34+92
	DD	imagerel $unwind$?substr@?$basic_string@DU?$char_traits@D@std@@V?$allocator@D@2@@std@@QEBA?AV12@_K0@Z
pdata	ENDS
;	COMDAT pdata
pdata	SEGMENT
$pdata$?_Equal@?$basic_string@DU?$char_traits@D@std@@V?$allocator@D@2@@std@@QEBA_NAEBV12@@Z DD imagerel $LN21
	DD	imagerel $LN21+60
	DD	imagerel $unwind$?_Equal@?$basic_string@DU?$char_traits@D@std@@V?$allocator@D@2@@std@@QEBA_NAEBV12@@Z
pdata	ENDS
;	COMDAT pdata
pdata	SEGMENT
$pdata$?_Equal@?$basic_string@DU?$char_traits@D@std@@V?$allocator@D@2@@std@@QEBA_NQEBD@Z DD imagerel $LN19
	DD	imagerel $LN19+67
	DD	imagerel $unwind$?_Equal@?$basic_string@DU?$char_traits@D@std@@V?$allocator@D@2@@std@@QEBA_NQEBD@Z
pdata	ENDS
;	COMDAT pdata
pdata	SEGMENT
$pdata$?_Tidy_deallocate@?$basic_string@DU?$char_traits@D@std@@V?$allocator@D@2@@std@@AEAAXXZ DD imagerel $LN27
	DD	imagerel $LN27+95
	DD	imagerel $unwind$?_Tidy_deallocate@?$basic_string@DU?$char_traits@D@std@@V?$allocator@D@2@@std@@AEAAXXZ
pdata	ENDS
;	COMDAT pdata
pdata	SEGMENT
$pdata$??_G?$basic_string@DU?$char_traits@D@std@@V?$allocator@D@2@@std@@QEAAPEAXI@Z DD imagerel $LN35
	DD	imagerel $LN35+128
	DD	imagerel $unwind$??_G?$basic_string@DU?$char_traits@D@std@@V?$allocator@D@2@@std@@QEAAPEAXI@Z
pdata	ENDS
;	COMDAT pdata
pdata	SEGMENT
$pdata$?stoi@std@@YAHAEBV?$basic_string@DU?$char_traits@D@std@@V?$allocator@D@2@@1@PEA_KH@Z DD imagerel $LN19
	DD	imagerel $LN19+156
	DD	imagerel $unwind$?stoi@std@@YAHAEBV?$basic_string@DU?$char_traits@D@std@@V?$allocator@D@2@@1@PEA_KH@Z
pdata	ENDS
;	COMDAT pdata
pdata	SEGMENT
$pdata$??0bad_cast@std@@QEAA@AEBV01@@Z DD imagerel $LN7
	DD	imagerel $LN7+60
	DD	imagerel $unwind$??0bad_cast@std@@QEAA@AEBV01@@Z
pdata	ENDS
;	COMDAT pdata
pdata	SEGMENT
$pdata$??_Gbad_cast@std@@UEAAPEAXI@Z DD imagerel $LN12
	DD	imagerel $LN12+66
	DD	imagerel $unwind$??_Gbad_cast@std@@UEAAPEAXI@Z
pdata	ENDS
;	COMDAT pdata
pdata	SEGMENT
$pdata$?_Throw_bad_cast@std@@YAXXZ DD imagerel $LN4
	DD	imagerel $LN4+32
	DD	imagerel $unwind$?_Throw_bad_cast@std@@YAXXZ
pdata	ENDS
;	COMDAT pdata
pdata	SEGMENT
$pdata$??1locale@std@@QEAA@XZ DD imagerel $LN8
	DD	imagerel $LN8+47
	DD	imagerel $unwind$??1locale@std@@QEAA@XZ
pdata	ENDS
;	COMDAT pdata
pdata	SEGMENT
$pdata$?_Getfacet@locale@std@@QEBAPEBVfacet@12@_K@Z DD imagerel $LN10
	DD	imagerel $LN10+75
	DD	imagerel $unwind$?_Getfacet@locale@std@@QEBAPEBVfacet@12@_K@Z
pdata	ENDS
;	COMDAT pdata
pdata	SEGMENT
$pdata$??$_Fgetc@D@std@@YA_NAEADPEAU_iobuf@@@Z DD imagerel $LN6
	DD	imagerel $LN6+41
	DD	imagerel $unwind$??$_Fgetc@D@std@@YA_NAEADPEAU_iobuf@@@Z
pdata	ENDS
;	COMDAT pdata
pdata	SEGMENT
$pdata$??$_Fputc@D@std@@YA_NDPEAU_iobuf@@@Z DD imagerel $LN4
	DD	imagerel $LN4+24
	DD	imagerel $unwind$??$_Fputc@D@std@@YA_NDPEAU_iobuf@@@Z
pdata	ENDS
;	COMDAT pdata
pdata	SEGMENT
$pdata$??$_Ungetc@D@std@@YA_NAEBDPEAU_iobuf@@@Z DD imagerel $LN4
	DD	imagerel $LN4+24
	DD	imagerel $unwind$??$_Ungetc@D@std@@YA_NAEBDPEAU_iobuf@@@Z
pdata	ENDS
;	COMDAT pdata
pdata	SEGMENT
$pdata$??1_CODE_LINK@@QEAA@XZ DD imagerel $LN34
	DD	imagerel $LN34+97
	DD	imagerel $unwind$??1_CODE_LINK@@QEAA@XZ
pdata	ENDS
;	COMDAT pdata
pdata	SEGMENT
$pdata$??_G_CODE_LINK@@QEAAPEAXI@Z DD imagerel $LN39
	DD	imagerel $LN39+130
	DD	imagerel $unwind$??_G_CODE_LINK@@QEAAPEAXI@Z
pdata	ENDS
;	COMDAT pdata
pdata	SEGMENT
$pdata$?deallocate@?$allocator@E@std@@QEAAXQEAE_K@Z DD imagerel $LN21
	DD	imagerel $LN21+62
	DD	imagerel $unwind$?deallocate@?$allocator@E@std@@QEAAXQEAE_K@Z
pdata	ENDS
;	COMDAT pdata
pdata	SEGMENT
$pdata$?allocate@?$allocator@E@std@@QEAAPEAE_K@Z DD imagerel $LN27
	DD	imagerel $LN27+89
	DD	imagerel $unwind$?allocate@?$allocator@E@std@@QEAAPEAE_K@Z
pdata	ENDS
;	COMDAT pdata
pdata	SEGMENT
$pdata$?_Umove@?$vector@EV?$allocator@E@std@@@std@@AEAAPEAEPEAE00@Z DD imagerel $LN8
	DD	imagerel $LN8+43
	DD	imagerel $unwind$?_Umove@?$vector@EV?$allocator@E@std@@@std@@AEAAPEAEPEAE00@Z
pdata	ENDS
;	COMDAT pdata
pdata	SEGMENT
$pdata$?_Change_array@?$vector@EV?$allocator@E@std@@@std@@AEAAXQEAE_K1@Z DD imagerel $LN25
	DD	imagerel $LN25+132
	DD	imagerel $unwind$?_Change_array@?$vector@EV?$allocator@E@std@@@std@@AEAAXQEAE_K1@Z
pdata	ENDS
;	COMDAT pdata
pdata	SEGMENT
$pdata$?_Xlength@?$vector@EV?$allocator@E@std@@@std@@CAXXZ DD imagerel $LN4
	DD	imagerel $LN4+17
	DD	imagerel $unwind$?_Xlength@?$vector@EV?$allocator@E@std@@@std@@CAXXZ
pdata	ENDS
;	COMDAT pdata
pdata	SEGMENT
$pdata$?deallocate@?$allocator@PEAU_VM_INSTRUCTION@@@std@@QEAAXQEAPEAU_VM_INSTRUCTION@@_K@Z DD imagerel $LN21
	DD	imagerel $LN21+67
	DD	imagerel $unwind$?deallocate@?$allocator@PEAU_VM_INSTRUCTION@@@std@@QEAAXQEAPEAU_VM_INSTRUCTION@@_K@Z
pdata	ENDS
;	COMDAT pdata
pdata	SEGMENT
$pdata$?allocate@?$allocator@PEAU_VM_INSTRUCTION@@@std@@QEAAPEAPEAU_VM_INSTRUCTION@@_K@Z DD imagerel $LN30
	DD	imagerel $LN30+112
	DD	imagerel $unwind$?allocate@?$allocator@PEAU_VM_INSTRUCTION@@@std@@QEAAPEAPEAU_VM_INSTRUCTION@@_K@Z
pdata	ENDS
;	COMDAT pdata
pdata	SEGMENT
$pdata$?_Umove@?$vector@PEAU_VM_INSTRUCTION@@V?$allocator@PEAU_VM_INSTRUCTION@@@std@@@std@@AEAAPEAPEAU_VM_INSTRUCTION@@PEAPEAU3@00@Z DD imagerel $LN8
	DD	imagerel $LN8+49
	DD	imagerel $unwind$?_Umove@?$vector@PEAU_VM_INSTRUCTION@@V?$allocator@PEAU_VM_INSTRUCTION@@@std@@@std@@AEAAPEAPEAU_VM_INSTRUCTION@@PEAPEAU3@00@Z
pdata	ENDS
;	COMDAT pdata
pdata	SEGMENT
$pdata$?_Change_array@?$vector@PEAU_VM_INSTRUCTION@@V?$allocator@PEAU_VM_INSTRUCTION@@@std@@@std@@AEAAXQEAPEAU_VM_INSTRUCTION@@_K1@Z DD imagerel $LN25
	DD	imagerel $LN25+136
	DD	imagerel $unwind$?_Change_array@?$vector@PEAU_VM_INSTRUCTION@@V?$allocator@PEAU_VM_INSTRUCTION@@@std@@@std@@AEAAXQEAPEAU_VM_INSTRUCTION@@_K1@Z
pdata	ENDS
;	COMDAT pdata
pdata	SEGMENT
$pdata$?_Xlength@?$vector@PEAU_VM_INSTRUCTION@@V?$allocator@PEAU_VM_INSTRUCTION@@@std@@@std@@CAXXZ DD imagerel $LN4
	DD	imagerel $LN4+17
	DD	imagerel $unwind$?_Xlength@?$vector@PEAU_VM_INSTRUCTION@@V?$allocator@PEAU_VM_INSTRUCTION@@@std@@@std@@CAXXZ
pdata	ENDS
;	COMDAT pdata
pdata	SEGMENT
$pdata$?VmTokenizeLine@@YA?AV?$vector@V?$basic_string@DU?$char_traits@D@std@@V?$allocator@D@2@@std@@V?$allocator@V?$basic_string@DU?$char_traits@D@std@@V?$allocator@D@2@@std@@@2@@std@@AEBV?$basic_string@DU?$char_traits@D@std@@V?$allocator@D@2@@2@0@Z DD imagerel $LN134
	DD	imagerel $LN134+545
	DD	imagerel $unwind$?VmTokenizeLine@@YA?AV?$vector@V?$basic_string@DU?$char_traits@D@std@@V?$allocator@D@2@@std@@V?$allocator@V?$basic_string@DU?$char_traits@D@std@@V?$allocator@D@2@@std@@@2@@std@@AEBV?$basic_string@DU?$char_traits@D@std@@V?$allocator@D@2@@2@0@Z
pdata	ENDS
;	COMDAT pdata
pdata	SEGMENT
$pdata$?dtor$0@?0??VmTokenizeLine@@YA?AV?$vector@V?$basic_string@DU?$char_traits@D@std@@V?$allocator@D@2@@std@@V?$allocator@V?$basic_string@DU?$char_traits@D@std@@V?$allocator@D@2@@std@@@2@@std@@AEBV?$basic_string@DU?$char_traits@D@std@@V?$allocator@D@2@@2@0@Z@4HA DD imagerel ?dtor$0@?0??VmTokenizeLine@@YA?AV?$vector@V?$basic_string@DU?$char_traits@D@std@@V?$allocator@D@2@@std@@V?$allocator@V?$basic_string@DU?$char_traits@D@std@@V?$allocator@D@2@@std@@@2@@std@@AEBV?$basic_string@DU?$char_traits@D@std@@V?$allocator@D@2@@2@0@Z@4HA
	DD	imagerel ?dtor$0@?0??VmTokenizeLine@@YA?AV?$vector@V?$basic_string@DU?$char_traits@D@std@@V?$allocator@D@2@@std@@V?$allocator@V?$basic_string@DU?$char_traits@D@std@@V?$allocator@D@2@@std@@@2@@std@@AEBV?$basic_string@DU?$char_traits@D@std@@V?$allocator@D@2@@2@0@Z@4HA+38
	DD	imagerel $unwind$?dtor$0@?0??VmTokenizeLine@@YA?AV?$vector@V?$basic_string@DU?$char_traits@D@std@@V?$allocator@D@2@@std@@V?$allocator@V?$basic_string@DU?$char_traits@D@std@@V?$allocator@D@2@@std@@@2@@std@@AEBV?$basic_string@DU?$char_traits@D@std@@V?$allocator@D@2@@2@0@Z@4HA
pdata	ENDS
;	COMDAT pdata
pdata	SEGMENT
$pdata$?VmGetInstructionId@@YAHAEBV?$basic_string@DU?$char_traits@D@std@@V?$allocator@D@2@@std@@PEAE@Z DD imagerel $LN35
	DD	imagerel $LN35+149
	DD	imagerel $unwind$?VmGetInstructionId@@YAHAEBV?$basic_string@DU?$char_traits@D@std@@V?$allocator@D@2@@std@@PEAE@Z
pdata	ENDS
;	COMDAT pdata
pdata	SEGMENT
$pdata$?VmGetRegisterId@@YAHAEBV?$basic_string@DU?$char_traits@D@std@@V?$allocator@D@2@@std@@PEAE@Z DD imagerel $LN35
	DD	imagerel $LN35+146
	DD	imagerel $unwind$?VmGetRegisterId@@YAHAEBV?$basic_string@DU?$char_traits@D@std@@V?$allocator@D@2@@std@@PEAE@Z
pdata	ENDS
;	COMDAT pdata
pdata	SEGMENT
$pdata$?VmLoadDefaultInstructions@@YAXPEAU_VM_ASSEMBLER@@@Z DD imagerel $LN21
	DD	imagerel $LN21+1618
	DD	imagerel $unwind$?VmLoadDefaultInstructions@@YAXPEAU_VM_ASSEMBLER@@@Z
pdata	ENDS
;	COMDAT pdata
pdata	SEGMENT
$pdata$0$?VmLoadDefaultInstructions@@YAXPEAU_VM_ASSEMBLER@@@Z DD imagerel $LN21+1618
	DD	imagerel $LN21+2132
	DD	imagerel $chain$0$?VmLoadDefaultInstructions@@YAXPEAU_VM_ASSEMBLER@@@Z
pdata	ENDS
;	COMDAT pdata
pdata	SEGMENT
$pdata$?VmAddInstruction@@YAHPEAU_VM_ASSEMBLER@@AEBV?$vector@V?$basic_string@DU?$char_traits@D@std@@V?$allocator@D@2@@std@@V?$allocator@V?$basic_string@DU?$char_traits@D@std@@V?$allocator@D@2@@std@@@2@@std@@@Z DD imagerel $LN165
	DD	imagerel $LN165+807
	DD	imagerel $unwind$?VmAddInstruction@@YAHPEAU_VM_ASSEMBLER@@AEBV?$vector@V?$basic_string@DU?$char_traits@D@std@@V?$allocator@D@2@@std@@V?$allocator@V?$basic_string@DU?$char_traits@D@std@@V?$allocator@D@2@@std@@@2@@std@@@Z
pdata	ENDS
;	COMDAT pdata
pdata	SEGMENT
$pdata$?VmLoadFile@@YAHPEAU_VM_ASSEMBLER@@AEBV?$basic_string@DU?$char_traits@D@std@@V?$allocator@D@2@@std@@@Z DD imagerel $LN616
	DD	imagerel $LN616+1870
	DD	imagerel $unwind$?VmLoadFile@@YAHPEAU_VM_ASSEMBLER@@AEBV?$basic_string@DU?$char_traits@D@std@@V?$allocator@D@2@@std@@@Z
pdata	ENDS
;	COMDAT pdata
pdata	SEGMENT
$pdata$?VmAppendJumpsToUsed@@YAXPEAU_VM_ASSEMBLER@@@Z DD imagerel $LN18
	DD	imagerel $LN18+29
	DD	imagerel $unwind$?VmAppendJumpsToUsed@@YAXPEAU_VM_ASSEMBLER@@@Z
pdata	ENDS
;	COMDAT pdata
pdata	SEGMENT
$pdata$2$?VmAppendJumpsToUsed@@YAXPEAU_VM_ASSEMBLER@@@Z DD imagerel $LN18+29
	DD	imagerel $LN18+150
	DD	imagerel $chain$2$?VmAppendJumpsToUsed@@YAXPEAU_VM_ASSEMBLER@@@Z
pdata	ENDS
;	COMDAT pdata
pdata	SEGMENT
$pdata$3$?VmAppendJumpsToUsed@@YAXPEAU_VM_ASSEMBLER@@@Z DD imagerel $LN18+150
	DD	imagerel $LN18+161
	DD	imagerel $chain$3$?VmAppendJumpsToUsed@@YAXPEAU_VM_ASSEMBLER@@@Z
pdata	ENDS
;	COMDAT pdata
pdata	SEGMENT
$pdata$?VmShuffleUsedHandlerOder@@YAXPEAU_VM_ASSEMBLER@@@Z DD imagerel $LN43
	DD	imagerel $LN43+198
	DD	imagerel $unwind$?VmShuffleUsedHandlerOder@@YAXPEAU_VM_ASSEMBLER@@@Z
pdata	ENDS
;	COMDAT pdata
pdata	SEGMENT
$pdata$?VmFoldTable@@YAXPEAU_VM_ASSEMBLER@@@Z DD imagerel $LN75
	DD	imagerel $LN75+86
	DD	imagerel $unwind$?VmFoldTable@@YAXPEAU_VM_ASSEMBLER@@@Z
pdata	ENDS
;	COMDAT pdata
pdata	SEGMENT
$pdata$2$?VmFoldTable@@YAXPEAU_VM_ASSEMBLER@@@Z DD imagerel $LN75+86
	DD	imagerel $LN75+428
	DD	imagerel $chain$2$?VmFoldTable@@YAXPEAU_VM_ASSEMBLER@@@Z
pdata	ENDS
;	COMDAT pdata
pdata	SEGMENT
$pdata$3$?VmFoldTable@@YAXPEAU_VM_ASSEMBLER@@@Z DD imagerel $LN75+428
	DD	imagerel $LN75+456
	DD	imagerel $chain$3$?VmFoldTable@@YAXPEAU_VM_ASSEMBLER@@@Z
pdata	ENDS
;	COMDAT pdata
pdata	SEGMENT
$pdata$?VmGenerateRandomOpCodes@@YAXPEAU_VM_ASSEMBLER@@@Z DD imagerel $LN92
	DD	imagerel $LN92+183
	DD	imagerel $unwind$?VmGenerateRandomOpCodes@@YAXPEAU_VM_ASSEMBLER@@@Z
pdata	ENDS
;	COMDAT pdata
pdata	SEGMENT
$pdata$0$?VmGenerateRandomOpCodes@@YAXPEAU_VM_ASSEMBLER@@@Z DD imagerel $LN92+183
	DD	imagerel $LN92+485
	DD	imagerel $chain$0$?VmGenerateRandomOpCodes@@YAXPEAU_VM_ASSEMBLER@@@Z
pdata	ENDS
;	COMDAT pdata
pdata	SEGMENT
$pdata$1$?VmGenerateRandomOpCodes@@YAXPEAU_VM_ASSEMBLER@@@Z DD imagerel $LN92+485
	DD	imagerel $LN92+524
	DD	imagerel $chain$1$?VmGenerateRandomOpCodes@@YAXPEAU_VM_ASSEMBLER@@@Z
pdata	ENDS
;	COMDAT pdata
pdata	SEGMENT
$pdata$?VmGetJumpDelta@@YAHPEAU_CODE_LINK@@@Z DD imagerel $LN67
	DD	imagerel $LN67+259
	DD	imagerel $unwind$?VmGetJumpDelta@@YAHPEAU_CODE_LINK@@@Z
pdata	ENDS
;	COMDAT pdata
pdata	SEGMENT
$pdata$?VmAssembleCodeToBuffer@@YAPEAXPEAU_VM_ASSEMBLER@@PEAK@Z DD imagerel $LN105
	DD	imagerel $LN105+91
	DD	imagerel $unwind$?VmAssembleCodeToBuffer@@YAPEAXPEAU_VM_ASSEMBLER@@PEAK@Z
pdata	ENDS
;	COMDAT pdata
pdata	SEGMENT
$pdata$0$?VmAssembleCodeToBuffer@@YAPEAXPEAU_VM_ASSEMBLER@@PEAK@Z DD imagerel $LN105+91
	DD	imagerel $LN105+111
	DD	imagerel $chain$0$?VmAssembleCodeToBuffer@@YAPEAXPEAU_VM_ASSEMBLER@@PEAK@Z
pdata	ENDS
;	COMDAT pdata
pdata	SEGMENT
$pdata$2$?VmAssembleCodeToBuffer@@YAPEAXPEAU_VM_ASSEMBLER@@PEAK@Z DD imagerel $LN105+111
	DD	imagerel $LN105+628
	DD	imagerel $chain$2$?VmAssembleCodeToBuffer@@YAPEAXPEAU_VM_ASSEMBLER@@PEAK@Z
pdata	ENDS
;	COMDAT pdata
pdata	SEGMENT
$pdata$3$?VmAssembleCodeToBuffer@@YAPEAXPEAU_VM_ASSEMBLER@@PEAK@Z DD imagerel $LN105+628
	DD	imagerel $LN105+648
	DD	imagerel $chain$3$?VmAssembleCodeToBuffer@@YAPEAXPEAU_VM_ASSEMBLER@@PEAK@Z
pdata	ENDS
;	COMDAT pdata
pdata	SEGMENT
$pdata$4$?VmAssembleCodeToBuffer@@YAPEAXPEAU_VM_ASSEMBLER@@PEAK@Z DD imagerel $LN105+648
	DD	imagerel $LN105+811
	DD	imagerel $chain$4$?VmAssembleCodeToBuffer@@YAPEAXPEAU_VM_ASSEMBLER@@PEAK@Z
pdata	ENDS
;	COMDAT pdata
pdata	SEGMENT
$pdata$?VmAssembleVmToBuffer@@YAPEAXPEAU_VM_ASSEMBLER@@PEAK@Z DD imagerel $LN21
	DD	imagerel $LN21+128
	DD	imagerel $unwind$?VmAssembleVmToBuffer@@YAPEAXPEAU_VM_ASSEMBLER@@PEAK@Z
pdata	ENDS
;	COMDAT pdata
pdata	SEGMENT
$pdata$2$?VmAssembleVmToBuffer@@YAPEAXPEAU_VM_ASSEMBLER@@PEAK@Z DD imagerel $LN21+128
	DD	imagerel $LN21+183
	DD	imagerel $chain$2$?VmAssembleVmToBuffer@@YAPEAXPEAU_VM_ASSEMBLER@@PEAK@Z
pdata	ENDS
;	COMDAT pdata
pdata	SEGMENT
$pdata$3$?VmAssembleVmToBuffer@@YAPEAXPEAU_VM_ASSEMBLER@@PEAK@Z DD imagerel $LN21+183
	DD	imagerel $LN21+208
	DD	imagerel $chain$3$?VmAssembleVmToBuffer@@YAPEAXPEAU_VM_ASSEMBLER@@PEAK@Z
pdata	ENDS
;	COMDAT pdata
pdata	SEGMENT
$pdata$?VmBuildHandlerTable@@YAXPEAU_VM_ASSEMBLER@@PEAK@Z DD imagerel $LN18
	DD	imagerel $LN18+82
	DD	imagerel $unwind$?VmBuildHandlerTable@@YAXPEAU_VM_ASSEMBLER@@PEAK@Z
pdata	ENDS
;	COMDAT pdata
pdata	SEGMENT
$pdata$?VmBuildSymbolTable@@YAPEAXPEAU_VM_ASSEMBLER@@PEAK@Z DD imagerel $LN87
	DD	imagerel $LN87+500
	DD	imagerel $unwind$?VmBuildSymbolTable@@YAPEAXPEAU_VM_ASSEMBLER@@PEAK@Z
pdata	ENDS
;	COMDAT pdata
pdata	SEGMENT
$pdata$?VmGetVmEnterOpCode@@YAEPEAU_VM_ASSEMBLER@@@Z DD imagerel $LN9
	DD	imagerel $LN9+53
	DD	imagerel $unwind$?VmGetVmEnterOpCode@@YAEPEAU_VM_ASSEMBLER@@@Z
pdata	ENDS
;	COMDAT pdata
pdata	SEGMENT
$pdata$?deallocate@?$allocator@V?$basic_string@DU?$char_traits@D@std@@V?$allocator@D@2@@std@@@std@@QEAAXQEAV?$basic_string@DU?$char_traits@D@std@@V?$allocator@D@2@@2@_K@Z DD imagerel $LN21
	DD	imagerel $LN21+66
	DD	imagerel $unwind$?deallocate@?$allocator@V?$basic_string@DU?$char_traits@D@std@@V?$allocator@D@2@@std@@@std@@QEAAXQEAV?$basic_string@DU?$char_traits@D@std@@V?$allocator@D@2@@2@_K@Z
pdata	ENDS
;	COMDAT pdata
pdata	SEGMENT
$pdata$?allocate@?$allocator@V?$basic_string@DU?$char_traits@D@std@@V?$allocator@D@2@@std@@@std@@QEAAPEAV?$basic_string@DU?$char_traits@D@std@@V?$allocator@D@2@@2@_K@Z DD imagerel $LN30
	DD	imagerel $LN30+108
	DD	imagerel $unwind$?allocate@?$allocator@V?$basic_string@DU?$char_traits@D@std@@V?$allocator@D@2@@std@@@std@@QEAAPEAV?$basic_string@DU?$char_traits@D@std@@V?$allocator@D@2@@2@_K@Z
pdata	ENDS
;	COMDAT pdata
pdata	SEGMENT
$pdata$??1?$vector@V?$basic_string@DU?$char_traits@D@std@@V?$allocator@D@2@@std@@V?$allocator@V?$basic_string@DU?$char_traits@D@std@@V?$allocator@D@2@@std@@@2@@std@@QEAA@XZ DD imagerel $LN30
	DD	imagerel $LN30+107
	DD	imagerel $unwind$??1?$vector@V?$basic_string@DU?$char_traits@D@std@@V?$allocator@D@2@@std@@V?$allocator@V?$basic_string@DU?$char_traits@D@std@@V?$allocator@D@2@@std@@@2@@std@@QEAA@XZ
pdata	ENDS
;	COMDAT pdata
pdata	SEGMENT
$pdata$?push_back@?$vector@V?$basic_string@DU?$char_traits@D@std@@V?$allocator@D@2@@std@@V?$allocator@V?$basic_string@DU?$char_traits@D@std@@V?$allocator@D@2@@std@@@2@@std@@QEAAXAEBV?$basic_string@DU?$char_traits@D@std@@V?$allocator@D@2@@2@@Z DD imagerel $LN11
	DD	imagerel $LN11+54
	DD	imagerel $unwind$?push_back@?$vector@V?$basic_string@DU?$char_traits@D@std@@V?$allocator@D@2@@std@@V?$allocator@V?$basic_string@DU?$char_traits@D@std@@V?$allocator@D@2@@std@@@2@@std@@QEAAXAEBV?$basic_string@DU?$char_traits@D@std@@V?$allocator@D@2@@2@@Z
pdata	ENDS
;	COMDAT pdata
pdata	SEGMENT
$pdata$?_Umove_if_noexcept@?$vector@V?$basic_string@DU?$char_traits@D@std@@V?$allocator@D@2@@std@@V?$allocator@V?$basic_string@DU?$char_traits@D@std@@V?$allocator@D@2@@std@@@2@@std@@AEAAXPEAV?$basic_string@DU?$char_traits@D@std@@V?$allocator@D@2@@2@00@Z DD imagerel $LN90
	DD	imagerel $LN90+124
	DD	imagerel $unwind$?_Umove_if_noexcept@?$vector@V?$basic_string@DU?$char_traits@D@std@@V?$allocator@D@2@@std@@V?$allocator@V?$basic_string@DU?$char_traits@D@std@@V?$allocator@D@2@@std@@@2@@std@@AEAAXPEAV?$basic_string@DU?$char_traits@D@std@@V?$allocator@D@2@@2@00@Z
pdata	ENDS
;	COMDAT pdata
pdata	SEGMENT
$pdata$?_Change_array@?$vector@V?$basic_string@DU?$char_traits@D@std@@V?$allocator@D@2@@std@@V?$allocator@V?$basic_string@DU?$char_traits@D@std@@V?$allocator@D@2@@std@@@2@@std@@AEAAXQEAV?$basic_string@DU?$char_traits@D@std@@V?$allocator@D@2@@2@_K1@Z DD imagerel $LN27
	DD	imagerel $LN27+157
	DD	imagerel $unwind$?_Change_array@?$vector@V?$basic_string@DU?$char_traits@D@std@@V?$allocator@D@2@@std@@V?$allocator@V?$basic_string@DU?$char_traits@D@std@@V?$allocator@D@2@@std@@@2@@std@@AEAAXQEAV?$basic_string@DU?$char_traits@D@std@@V?$allocator@D@2@@2@_K1@Z
pdata	ENDS
;	COMDAT pdata
pdata	SEGMENT
$pdata$?_Tidy@?$vector@V?$basic_string@DU?$char_traits@D@std@@V?$allocator@D@2@@std@@V?$allocator@V?$basic_string@DU?$char_traits@D@std@@V?$allocator@D@2@@std@@@2@@std@@AEAAXXZ DD imagerel $LN27
	DD	imagerel $LN27+107
	DD	imagerel $unwind$?_Tidy@?$vector@V?$basic_string@DU?$char_traits@D@std@@V?$allocator@D@2@@std@@V?$allocator@V?$basic_string@DU?$char_traits@D@std@@V?$allocator@D@2@@std@@@2@@std@@AEAAXXZ
pdata	ENDS
;	COMDAT pdata
pdata	SEGMENT
$pdata$?_Xlength@?$vector@V?$basic_string@DU?$char_traits@D@std@@V?$allocator@D@2@@std@@V?$allocator@V?$basic_string@DU?$char_traits@D@std@@V?$allocator@D@2@@std@@@2@@std@@CAXXZ DD imagerel $LN4
	DD	imagerel $LN4+17
	DD	imagerel $unwind$?_Xlength@?$vector@V?$basic_string@DU?$char_traits@D@std@@V?$allocator@D@2@@std@@V?$allocator@V?$basic_string@DU?$char_traits@D@std@@V?$allocator@D@2@@std@@@2@@std@@CAXXZ
pdata	ENDS
;	COMDAT pdata
pdata	SEGMENT
$pdata$??$?8DU?$char_traits@D@std@@V?$allocator@D@1@@std@@YA_NAEBV?$basic_string@DU?$char_traits@D@std@@V?$allocator@D@2@@0@QEBD@Z DD imagerel $LN21
	DD	imagerel $LN21+67
	DD	imagerel $unwind$??$?8DU?$char_traits@D@std@@V?$allocator@D@1@@std@@YA_NAEBV?$basic_string@DU?$char_traits@D@std@@V?$allocator@D@2@@0@QEBD@Z
pdata	ENDS
;	COMDAT pdata
pdata	SEGMENT
$pdata$??0?$basic_ifstream@DU?$char_traits@D@std@@@std@@QEAA@PEBDHH@Z DD imagerel $LN60
	DD	imagerel $LN60+515
	DD	imagerel $unwind$??0?$basic_ifstream@DU?$char_traits@D@std@@@std@@QEAA@PEBDHH@Z
pdata	ENDS
;	COMDAT pdata
pdata	SEGMENT
$pdata$?dtor$0@?0???0?$basic_ifstream@DU?$char_traits@D@std@@@std@@QEAA@PEBDHH@Z@4HA DD imagerel ?dtor$0@?0???0?$basic_ifstream@DU?$char_traits@D@std@@@std@@QEAA@PEBDHH@Z@4HA
	DD	imagerel ?dtor$0@?0???0?$basic_ifstream@DU?$char_traits@D@std@@@std@@QEAA@PEBDHH@Z@4HA+46
	DD	imagerel $unwind$?dtor$0@?0???0?$basic_ifstream@DU?$char_traits@D@std@@@std@@QEAA@PEBDHH@Z@4HA
pdata	ENDS
;	COMDAT pdata
pdata	SEGMENT
$pdata$??0?$basic_ifstream@DU?$char_traits@D@std@@@std@@QEAA@AEBV?$basic_string@DU?$char_traits@D@std@@V?$allocator@D@2@@1@HH@Z DD imagerel $LN13
	DD	imagerel $LN13+76
	DD	imagerel $unwind$??0?$basic_ifstream@DU?$char_traits@D@std@@@std@@QEAA@AEBV?$basic_string@DU?$char_traits@D@std@@V?$allocator@D@2@@1@HH@Z
pdata	ENDS
;	COMDAT pdata
pdata	SEGMENT
$pdata$??1?$basic_ifstream@DU?$char_traits@D@std@@@std@@UEAA@XZ DD imagerel $LN5
	DD	imagerel $LN5+92
	DD	imagerel $unwind$??1?$basic_ifstream@DU?$char_traits@D@std@@@std@@UEAA@XZ
pdata	ENDS
;	COMDAT pdata
pdata	SEGMENT
$pdata$?close@?$basic_ifstream@DU?$char_traits@D@std@@@std@@QEAAXXZ DD imagerel $LN5
	DD	imagerel $LN5+58
	DD	imagerel $unwind$?close@?$basic_ifstream@DU?$char_traits@D@std@@@std@@QEAAXXZ
pdata	ENDS
;	COMDAT pdata
pdata	SEGMENT
$pdata$??0?$basic_filebuf@DU?$char_traits@D@std@@@std@@QEAA@XZ DD imagerel $LN17
	DD	imagerel $LN17+81
	DD	imagerel $unwind$??0?$basic_filebuf@DU?$char_traits@D@std@@@std@@QEAA@XZ
pdata	ENDS
;	COMDAT pdata
pdata	SEGMENT
$pdata$??1?$basic_filebuf@DU?$char_traits@D@std@@@std@@UEAA@XZ DD imagerel $LN14
	DD	imagerel $LN14+105
	DD	imagerel $unwind$??1?$basic_filebuf@DU?$char_traits@D@std@@@std@@UEAA@XZ
pdata	ENDS
;	COMDAT pdata
pdata	SEGMENT
$pdata$?open@?$basic_filebuf@DU?$char_traits@D@std@@@std@@QEAAPEAV12@PEBDHH@Z DD imagerel $LN35
	DD	imagerel $LN35+316
	DD	imagerel $unwind$?open@?$basic_filebuf@DU?$char_traits@D@std@@@std@@QEAAPEAV12@PEBDHH@Z
pdata	ENDS
;	COMDAT pdata
pdata	SEGMENT
$pdata$?close@?$basic_filebuf@DU?$char_traits@D@std@@@std@@QEAAPEAV12@XZ DD imagerel $LN20
	DD	imagerel $LN20+126
	DD	imagerel $unwind$?close@?$basic_filebuf@DU?$char_traits@D@std@@@std@@QEAAPEAV12@XZ
pdata	ENDS
;	COMDAT pdata
pdata	SEGMENT
$pdata$?overflow@?$basic_filebuf@DU?$char_traits@D@std@@@std@@MEAAHH@Z DD imagerel $LN46
	DD	imagerel $LN46+96
	DD	imagerel $unwind$?overflow@?$basic_filebuf@DU?$char_traits@D@std@@@std@@MEAAHH@Z
pdata	ENDS
;	COMDAT pdata
pdata	SEGMENT
$pdata$0$?overflow@?$basic_filebuf@DU?$char_traits@D@std@@@std@@MEAAHH@Z DD imagerel $LN46+96
	DD	imagerel $LN46+386
	DD	imagerel $chain$0$?overflow@?$basic_filebuf@DU?$char_traits@D@std@@@std@@MEAAHH@Z
pdata	ENDS
;	COMDAT pdata
pdata	SEGMENT
$pdata$1$?overflow@?$basic_filebuf@DU?$char_traits@D@std@@@std@@MEAAHH@Z DD imagerel $LN46+386
	DD	imagerel $LN46+416
	DD	imagerel $chain$1$?overflow@?$basic_filebuf@DU?$char_traits@D@std@@@std@@MEAAHH@Z
pdata	ENDS
;	COMDAT pdata
pdata	SEGMENT
$pdata$?pbackfail@?$basic_filebuf@DU?$char_traits@D@std@@@std@@MEAAHH@Z DD imagerel $LN57
	DD	imagerel $LN57+224
	DD	imagerel $unwind$?pbackfail@?$basic_filebuf@DU?$char_traits@D@std@@@std@@MEAAHH@Z
pdata	ENDS
;	COMDAT pdata
pdata	SEGMENT
$pdata$?underflow@?$basic_filebuf@DU?$char_traits@D@std@@@std@@MEAAHXZ DD imagerel $LN22
	DD	imagerel $LN22+51
	DD	imagerel $unwind$?underflow@?$basic_filebuf@DU?$char_traits@D@std@@@std@@MEAAHXZ
pdata	ENDS
;	COMDAT pdata
pdata	SEGMENT
$pdata$0$?underflow@?$basic_filebuf@DU?$char_traits@D@std@@@std@@MEAAHXZ DD imagerel $LN22+51
	DD	imagerel $LN22+77
	DD	imagerel $chain$0$?underflow@?$basic_filebuf@DU?$char_traits@D@std@@@std@@MEAAHXZ
pdata	ENDS
;	COMDAT pdata
pdata	SEGMENT
$pdata$2$?underflow@?$basic_filebuf@DU?$char_traits@D@std@@@std@@MEAAHXZ DD imagerel $LN22+77
	DD	imagerel $LN22+101
	DD	imagerel $chain$2$?underflow@?$basic_filebuf@DU?$char_traits@D@std@@@std@@MEAAHXZ
pdata	ENDS
;	COMDAT pdata
pdata	SEGMENT
$pdata$?uflow@?$basic_filebuf@DU?$char_traits@D@std@@@std@@MEAAHXZ DD imagerel $LN276
	DD	imagerel $LN276+719
	DD	imagerel $unwind$?uflow@?$basic_filebuf@DU?$char_traits@D@std@@@std@@MEAAHXZ
pdata	ENDS
;	COMDAT pdata
pdata	SEGMENT
$pdata$?xsgetn@?$basic_filebuf@DU?$char_traits@D@std@@@std@@MEAA_JPEAD_J@Z DD imagerel $LN39
	DD	imagerel $LN39+60
	DD	imagerel $unwind$?xsgetn@?$basic_filebuf@DU?$char_traits@D@std@@@std@@MEAA_JPEAD_J@Z
pdata	ENDS
;	COMDAT pdata
pdata	SEGMENT
$pdata$1$?xsgetn@?$basic_filebuf@DU?$char_traits@D@std@@@std@@MEAA_JPEAD_J@Z DD imagerel $LN39+60
	DD	imagerel $LN39+336
	DD	imagerel $chain$1$?xsgetn@?$basic_filebuf@DU?$char_traits@D@std@@@std@@MEAA_JPEAD_J@Z
pdata	ENDS
;	COMDAT pdata
pdata	SEGMENT
$pdata$3$?xsgetn@?$basic_filebuf@DU?$char_traits@D@std@@@std@@MEAA_JPEAD_J@Z DD imagerel $LN39+336
	DD	imagerel $LN39+341
	DD	imagerel $chain$3$?xsgetn@?$basic_filebuf@DU?$char_traits@D@std@@@std@@MEAA_JPEAD_J@Z
pdata	ENDS
;	COMDAT pdata
pdata	SEGMENT
$pdata$?xsputn@?$basic_filebuf@DU?$char_traits@D@std@@@std@@MEAA_JPEBD_J@Z DD imagerel $LN20
	DD	imagerel $LN20+212
	DD	imagerel $unwind$?xsputn@?$basic_filebuf@DU?$char_traits@D@std@@@std@@MEAA_JPEBD_J@Z
pdata	ENDS
;	COMDAT pdata
pdata	SEGMENT
$pdata$?seekoff@?$basic_filebuf@DU?$char_traits@D@std@@@std@@MEAA?AV?$fpos@U_Mbstatet@@@2@_JHH@Z DD imagerel $LN16
	DD	imagerel $LN16+219
	DD	imagerel $unwind$?seekoff@?$basic_filebuf@DU?$char_traits@D@std@@@std@@MEAA?AV?$fpos@U_Mbstatet@@@2@_JHH@Z
pdata	ENDS
;	COMDAT pdata
pdata	SEGMENT
$pdata$?seekpos@?$basic_filebuf@DU?$char_traits@D@std@@@std@@MEAA?AV?$fpos@U_Mbstatet@@@2@V32@H@Z DD imagerel $LN22
	DD	imagerel $LN22+211
	DD	imagerel $unwind$?seekpos@?$basic_filebuf@DU?$char_traits@D@std@@@std@@MEAA?AV?$fpos@U_Mbstatet@@@2@V32@H@Z
pdata	ENDS
;	COMDAT pdata
pdata	SEGMENT
$pdata$?setbuf@?$basic_filebuf@DU?$char_traits@D@std@@@std@@MEAAPEAV?$basic_streambuf@DU?$char_traits@D@std@@@2@PEAD_J@Z DD imagerel $LN19
	DD	imagerel $LN19+77
	DD	imagerel $unwind$?setbuf@?$basic_filebuf@DU?$char_traits@D@std@@@std@@MEAAPEAV?$basic_streambuf@DU?$char_traits@D@std@@@2@PEAD_J@Z
pdata	ENDS
;	COMDAT pdata
pdata	SEGMENT
$pdata$0$?setbuf@?$basic_filebuf@DU?$char_traits@D@std@@@std@@MEAAPEAV?$basic_streambuf@DU?$char_traits@D@std@@@2@PEAD_J@Z DD imagerel $LN19+77
	DD	imagerel $LN19+221
	DD	imagerel $chain$0$?setbuf@?$basic_filebuf@DU?$char_traits@D@std@@@std@@MEAAPEAV?$basic_streambuf@DU?$char_traits@D@std@@@2@PEAD_J@Z
pdata	ENDS
;	COMDAT pdata
pdata	SEGMENT
$pdata$1$?setbuf@?$basic_filebuf@DU?$char_traits@D@std@@@std@@MEAAPEAV?$basic_streambuf@DU?$char_traits@D@std@@@2@PEAD_J@Z DD imagerel $LN19+221
	DD	imagerel $LN19+243
	DD	imagerel $chain$1$?setbuf@?$basic_filebuf@DU?$char_traits@D@std@@@std@@MEAAPEAV?$basic_streambuf@DU?$char_traits@D@std@@@2@PEAD_J@Z
pdata	ENDS
;	COMDAT pdata
pdata	SEGMENT
$pdata$?sync@?$basic_filebuf@DU?$char_traits@D@std@@@std@@MEAAHXZ DD imagerel $LN9
	DD	imagerel $LN9+71
	DD	imagerel $unwind$?sync@?$basic_filebuf@DU?$char_traits@D@std@@@std@@MEAAHXZ
pdata	ENDS
;	COMDAT pdata
pdata	SEGMENT
$pdata$?imbue@?$basic_filebuf@DU?$char_traits@D@std@@@std@@MEAAXAEBVlocale@2@@Z DD imagerel $LN14
	DD	imagerel $LN14+80
	DD	imagerel $unwind$?imbue@?$basic_filebuf@DU?$char_traits@D@std@@@std@@MEAAXAEBVlocale@2@@Z
pdata	ENDS
;	COMDAT pdata
pdata	SEGMENT
$pdata$?_Init@?$basic_filebuf@DU?$char_traits@D@std@@@std@@IEAAXPEAU_iobuf@@W4_Initfl@12@@Z DD imagerel $LN13
	DD	imagerel $LN13+192
	DD	imagerel $unwind$?_Init@?$basic_filebuf@DU?$char_traits@D@std@@@std@@IEAAXPEAU_iobuf@@W4_Initfl@12@@Z
pdata	ENDS
;	COMDAT pdata
pdata	SEGMENT
$pdata$?_Endwrite@?$basic_filebuf@DU?$char_traits@D@std@@@std@@IEAA_NXZ DD imagerel $LN19
	DD	imagerel $LN19+53
	DD	imagerel $unwind$?_Endwrite@?$basic_filebuf@DU?$char_traits@D@std@@@std@@IEAA_NXZ
pdata	ENDS
;	COMDAT pdata
pdata	SEGMENT
$pdata$0$?_Endwrite@?$basic_filebuf@DU?$char_traits@D@std@@@std@@IEAA_NXZ DD imagerel $LN19+53
	DD	imagerel $LN19+148
	DD	imagerel $chain$0$?_Endwrite@?$basic_filebuf@DU?$char_traits@D@std@@@std@@IEAA_NXZ
pdata	ENDS
;	COMDAT pdata
pdata	SEGMENT
$pdata$2$?_Endwrite@?$basic_filebuf@DU?$char_traits@D@std@@@std@@IEAA_NXZ DD imagerel $LN19+148
	DD	imagerel $LN19+211
	DD	imagerel $chain$2$?_Endwrite@?$basic_filebuf@DU?$char_traits@D@std@@@std@@IEAA_NXZ
pdata	ENDS
;	COMDAT pdata
pdata	SEGMENT
$pdata$3$?_Endwrite@?$basic_filebuf@DU?$char_traits@D@std@@@std@@IEAA_NXZ DD imagerel $LN19+211
	DD	imagerel $LN19+232
	DD	imagerel $chain$3$?_Endwrite@?$basic_filebuf@DU?$char_traits@D@std@@@std@@IEAA_NXZ
pdata	ENDS
;	COMDAT pdata
pdata	SEGMENT
$pdata$?_Initcvt@?$basic_filebuf@DU?$char_traits@D@std@@@std@@IEAAXAEBV?$codecvt@DDU_Mbstatet@@@2@@Z DD imagerel $LN12
	DD	imagerel $LN12+72
	DD	imagerel $unwind$?_Initcvt@?$basic_filebuf@DU?$char_traits@D@std@@@std@@IEAAXAEBV?$codecvt@DDU_Mbstatet@@@2@@Z
pdata	ENDS
;	COMDAT pdata
pdata	SEGMENT
$pdata$??_G?$basic_filebuf@DU?$char_traits@D@std@@@std@@UEAAPEAXI@Z DD imagerel $LN7
	DD	imagerel $LN7+52
	DD	imagerel $unwind$??_G?$basic_filebuf@DU?$char_traits@D@std@@@std@@UEAAPEAXI@Z
pdata	ENDS
;	COMDAT pdata
pdata	SEGMENT
$pdata$??_G?$basic_ifstream@DU?$char_traits@D@std@@@std@@UEAAPEAXI@Z DD imagerel $LN7
	DD	imagerel $LN7+59
	DD	imagerel $unwind$??_G?$basic_ifstream@DU?$char_traits@D@std@@@std@@UEAAPEAXI@Z
pdata	ENDS
;	COMDAT pdata
pdata	SEGMENT
$pdata$??_D?$basic_ifstream@DU?$char_traits@D@std@@@std@@QEAAXXZ DD imagerel $LN8
	DD	imagerel $LN8+101
	DD	imagerel $unwind$??_D?$basic_ifstream@DU?$char_traits@D@std@@@std@@QEAAXXZ
pdata	ENDS
;	COMDAT pdata
pdata	SEGMENT
$pdata$??$getline@DU?$char_traits@D@std@@V?$allocator@D@2@@std@@YAAEAV?$basic_istream@DU?$char_traits@D@std@@@0@AEAV10@AEAV?$basic_string@DU?$char_traits@D@std@@V?$allocator@D@2@@0@@Z DD imagerel $LN4
	DD	imagerel $LN4+59
	DD	imagerel $unwind$??$getline@DU?$char_traits@D@std@@V?$allocator@D@2@@std@@YAAEAV?$basic_istream@DU?$char_traits@D@std@@@0@AEAV10@AEAV?$basic_string@DU?$char_traits@D@std@@V?$allocator@D@2@@0@@Z
pdata	ENDS
;	COMDAT pdata
pdata	SEGMENT
$pdata$??$transform@V?$_String_iterator@V?$_String_val@U?$_Simple_types@D@std@@@std@@@std@@V12@P6AHH@Z@std@@YA?AV?$_String_iterator@V?$_String_val@U?$_Simple_types@D@std@@@std@@@0@V10@0V10@P6AHH@Z@Z DD imagerel $LN15
	DD	imagerel $LN15+88
	DD	imagerel $unwind$??$transform@V?$_String_iterator@V?$_String_val@U?$_Simple_types@D@std@@@std@@@std@@V12@P6AHH@Z@std@@YA?AV?$_String_iterator@V?$_String_val@U?$_Simple_types@D@std@@@std@@@0@V10@0V10@P6AHH@Z@Z
pdata	ENDS
;	COMDAT pdata
pdata	SEGMENT
$pdata$??R?$mersenne_twister@I$0CA@$0CHA@$0BIN@$0BP@$0JJAILANP@$0L@$06$0JNCMFGIA@$0P@$0OPMGAAAA@$0BC@@std@@QEAAIXZ DD imagerel $LN33
	DD	imagerel $LN33+116
	DD	imagerel $unwind$??R?$mersenne_twister@I$0CA@$0CHA@$0BIN@$0BP@$0JJAILANP@$0L@$06$0JNCMFGIA@$0P@$0OPMGAAAA@$0BC@@std@@QEAAIXZ
pdata	ENDS
;	COMDAT pdata
pdata	SEGMENT
$pdata$0$??R?$mersenne_twister@I$0CA@$0CHA@$0BIN@$0BP@$0JJAILANP@$0L@$06$0JNCMFGIA@$0P@$0OPMGAAAA@$0BC@@std@@QEAAIXZ DD imagerel $LN33+116
	DD	imagerel $LN33+330
	DD	imagerel $chain$0$??R?$mersenne_twister@I$0CA@$0CHA@$0BIN@$0BP@$0JJAILANP@$0L@$06$0JNCMFGIA@$0P@$0OPMGAAAA@$0BC@@std@@QEAAIXZ
pdata	ENDS
;	COMDAT pdata
pdata	SEGMENT
$pdata$1$??R?$mersenne_twister@I$0CA@$0CHA@$0BIN@$0BP@$0JJAILANP@$0L@$06$0JNCMFGIA@$0P@$0OPMGAAAA@$0BC@@std@@QEAAIXZ DD imagerel $LN33+330
	DD	imagerel $LN33+395
	DD	imagerel $chain$1$??R?$mersenne_twister@I$0CA@$0CHA@$0BIN@$0BP@$0JJAILANP@$0L@$06$0JNCMFGIA@$0P@$0OPMGAAAA@$0BC@@std@@QEAAIXZ
pdata	ENDS
;	COMDAT pdata
pdata	SEGMENT
$pdata$?_Refill_lower@?$mersenne_twister@I$0CA@$0CHA@$0BIN@$0BP@$0JJAILANP@$0L@$06$0JNCMFGIA@$0P@$0OPMGAAAA@$0BC@@std@@IEAAXXZ DD imagerel $LN19
	DD	imagerel $LN19+239
	DD	imagerel $unwind$?_Refill_lower@?$mersenne_twister@I$0CA@$0CHA@$0BIN@$0BP@$0JJAILANP@$0L@$06$0JNCMFGIA@$0P@$0OPMGAAAA@$0BC@@std@@IEAAXXZ
pdata	ENDS
;	COMDAT pdata
pdata	SEGMENT
$pdata$??$shuffle@V?$_Vector_iterator@V?$_Vector_val@U?$_Simple_types@PEAU_VM_INSTRUCTION@@@std@@@std@@@std@@AEAV?$mersenne_twister_engine@I$0CA@$0CHA@$0BIN@$0BP@$0JJAILANP@$0L@$0PPPPPPPP@$06$0JNCMFGIA@$0P@$0OPMGAAAA@$0BC@$0GMAHIJGF@@2@@std@@YAXV?$_Vector_iterator@V?$_Vector_val@U?$_Simple_types@PEAU_VM_INSTRUCTION@@@std@@@std@@@0@0AEAV?$mersenne_twister_engine@I$0CA@$0CHA@$0BIN@$0BP@$0JJAILANP@$0L@$0PPPPPPPP@$06$0JNCMFGIA@$0P@$0OPMGAAAA@$0BC@$0GMAHIJGF@@0@@Z DD imagerel $LN13
	DD	imagerel $LN13+68
	DD	imagerel $unwind$??$shuffle@V?$_Vector_iterator@V?$_Vector_val@U?$_Simple_types@PEAU_VM_INSTRUCTION@@@std@@@std@@@std@@AEAV?$mersenne_twister_engine@I$0CA@$0CHA@$0BIN@$0BP@$0JJAILANP@$0L@$0PPPPPPPP@$06$0JNCMFGIA@$0P@$0OPMGAAAA@$0BC@$0GMAHIJGF@@2@@std@@YAXV?$_Vector_iterator@V?$_Vector_val@U?$_Simple_types@PEAU_VM_INSTRUCTION@@@std@@@std@@@0@0AEAV?$mersenne_twister_engine@I$0CA@$0CHA@$0BIN@$0BP@$0JJAILANP@$0L@$0PPPPPPPP@$06$0JNCMFGIA@$0P@$0OPMGAAAA@$0BC@$0GMAHIJGF@@0@@Z
pdata	ENDS
;	COMDAT pdata
pdata	SEGMENT
$pdata$??$?8DU?$char_traits@D@std@@V?$allocator@D@1@@std@@YA_NAEBV?$basic_string@DU?$char_traits@D@std@@V?$allocator@D@2@@0@0@Z DD imagerel $LN23
	DD	imagerel $LN23+60
	DD	imagerel $unwind$??$?8DU?$char_traits@D@std@@V?$allocator@D@1@@std@@YA_NAEBV?$basic_string@DU?$char_traits@D@std@@V?$allocator@D@2@@0@0@Z
pdata	ENDS
;	COMDAT pdata
pdata	SEGMENT
$pdata$?deallocate@?$allocator@U_VM_SYMBOL@@@std@@QEAAXQEAU_VM_SYMBOL@@_K@Z DD imagerel $LN21
	DD	imagerel $LN21+67
	DD	imagerel $unwind$?deallocate@?$allocator@U_VM_SYMBOL@@@std@@QEAAXQEAU_VM_SYMBOL@@_K@Z
pdata	ENDS
;	COMDAT pdata
pdata	SEGMENT
$pdata$?allocate@?$allocator@U_VM_SYMBOL@@@std@@QEAAPEAU_VM_SYMBOL@@_K@Z DD imagerel $LN30
	DD	imagerel $LN30+116
	DD	imagerel $unwind$?allocate@?$allocator@U_VM_SYMBOL@@@std@@QEAAPEAU_VM_SYMBOL@@_K@Z
pdata	ENDS
;	COMDAT pdata
pdata	SEGMENT
$pdata$??1?$vector@U_VM_SYMBOL@@V?$allocator@U_VM_SYMBOL@@@std@@@std@@QEAA@XZ DD imagerel $LN28
	DD	imagerel $LN28+122
	DD	imagerel $unwind$??1?$vector@U_VM_SYMBOL@@V?$allocator@U_VM_SYMBOL@@@std@@@std@@QEAA@XZ
pdata	ENDS
;	COMDAT pdata
pdata	SEGMENT
$pdata$?_Umove@?$vector@U_VM_SYMBOL@@V?$allocator@U_VM_SYMBOL@@@std@@@std@@AEAAPEAU_VM_SYMBOL@@PEAU3@00@Z DD imagerel $LN8
	DD	imagerel $LN8+75
	DD	imagerel $unwind$?_Umove@?$vector@U_VM_SYMBOL@@V?$allocator@U_VM_SYMBOL@@@std@@@std@@AEAAPEAU_VM_SYMBOL@@PEAU3@00@Z
pdata	ENDS
;	COMDAT pdata
pdata	SEGMENT
$pdata$?_Change_array@?$vector@U_VM_SYMBOL@@V?$allocator@U_VM_SYMBOL@@@std@@@std@@AEAAXQEAU_VM_SYMBOL@@_K1@Z DD imagerel $LN25
	DD	imagerel $LN25+176
	DD	imagerel $unwind$?_Change_array@?$vector@U_VM_SYMBOL@@V?$allocator@U_VM_SYMBOL@@@std@@@std@@AEAAXQEAU_VM_SYMBOL@@_K1@Z
pdata	ENDS
;	COMDAT pdata
pdata	SEGMENT
$pdata$?_Tidy@?$vector@U_VM_SYMBOL@@V?$allocator@U_VM_SYMBOL@@@std@@@std@@AEAAXXZ DD imagerel $LN25
	DD	imagerel $LN25+122
	DD	imagerel $unwind$?_Tidy@?$vector@U_VM_SYMBOL@@V?$allocator@U_VM_SYMBOL@@@std@@@std@@AEAAXXZ
pdata	ENDS
;	COMDAT pdata
pdata	SEGMENT
$pdata$?_Xlength@?$vector@U_VM_SYMBOL@@V?$allocator@U_VM_SYMBOL@@@std@@@std@@CAXXZ DD imagerel $LN4
	DD	imagerel $LN4+17
	DD	imagerel $unwind$?_Xlength@?$vector@U_VM_SYMBOL@@V?$allocator@U_VM_SYMBOL@@@std@@@std@@CAXXZ
pdata	ENDS
;	COMDAT pdata
pdata	SEGMENT
$pdata$??$_Emplace_reallocate@$$V@?$vector@U_VM_SYMBOL@@V?$allocator@U_VM_SYMBOL@@@std@@@std@@QEAAPEAU_VM_SYMBOL@@QEAU2@@Z DD imagerel $LN94
	DD	imagerel $LN94+512
	DD	imagerel $unwind$??$_Emplace_reallocate@$$V@?$vector@U_VM_SYMBOL@@V?$allocator@U_VM_SYMBOL@@@std@@@std@@QEAAPEAU_VM_SYMBOL@@QEAU2@@Z
pdata	ENDS
;	COMDAT pdata
pdata	SEGMENT
$pdata$?catch$0@?0???$_Emplace_reallocate@$$V@?$vector@U_VM_SYMBOL@@V?$allocator@U_VM_SYMBOL@@@std@@@std@@QEAAPEAU_VM_SYMBOL@@QEAU2@@Z@4HA DD imagerel ?catch$0@?0???$_Emplace_reallocate@$$V@?$vector@U_VM_SYMBOL@@V?$allocator@U_VM_SYMBOL@@@std@@@std@@QEAAPEAU_VM_SYMBOL@@QEAU2@@Z@4HA
	DD	imagerel ?catch$0@?0???$_Emplace_reallocate@$$V@?$vector@U_VM_SYMBOL@@V?$allocator@U_VM_SYMBOL@@@std@@@std@@QEAAPEAU_VM_SYMBOL@@QEAU2@@Z@4HA+40
	DD	imagerel $unwind$?catch$0@?0???$_Emplace_reallocate@$$V@?$vector@U_VM_SYMBOL@@V?$allocator@U_VM_SYMBOL@@@std@@@std@@QEAAPEAU_VM_SYMBOL@@QEAU2@@Z@4HA
pdata	ENDS
;	COMDAT pdata
pdata	SEGMENT
$pdata$??$use_facet@V?$codecvt@DDU_Mbstatet@@@std@@@std@@YAAEBV?$codecvt@DDU_Mbstatet@@@0@AEBVlocale@0@@Z DD imagerel $LN41
	DD	imagerel $LN41+250
	DD	imagerel $unwind$??$use_facet@V?$codecvt@DDU_Mbstatet@@@std@@@std@@YAAEBV?$codecvt@DDU_Mbstatet@@@0@AEBVlocale@0@@Z
pdata	ENDS
;	COMDAT pdata
pdata	SEGMENT
$pdata$??$emplace_back@AEBV?$basic_string@DU?$char_traits@D@std@@V?$allocator@D@2@@std@@@?$vector@V?$basic_string@DU?$char_traits@D@std@@V?$allocator@D@2@@std@@V?$allocator@V?$basic_string@DU?$char_traits@D@std@@V?$allocator@D@2@@std@@@2@@std@@QEAAAEAV?$basic_string@DU?$char_traits@D@std@@V?$allocator@D@2@@1@AEBV21@@Z DD imagerel $LN9
	DD	imagerel $LN9+61
	DD	imagerel $unwind$??$emplace_back@AEBV?$basic_string@DU?$char_traits@D@std@@V?$allocator@D@2@@std@@@?$vector@V?$basic_string@DU?$char_traits@D@std@@V?$allocator@D@2@@std@@V?$allocator@V?$basic_string@DU?$char_traits@D@std@@V?$allocator@D@2@@std@@@2@@std@@QEAAAEAV?$basic_string@DU?$char_traits@D@std@@V?$allocator@D@2@@1@AEBV21@@Z
pdata	ENDS
;	COMDAT pdata
pdata	SEGMENT
$pdata$??$_Emplace_back_with_unused_capacity@AEBV?$basic_string@DU?$char_traits@D@std@@V?$allocator@D@2@@std@@@?$vector@V?$basic_string@DU?$char_traits@D@std@@V?$allocator@D@2@@std@@V?$allocator@V?$basic_string@DU?$char_traits@D@std@@V?$allocator@D@2@@std@@@2@@std@@AEAAAEAV?$basic_string@DU?$char_traits@D@std@@V?$allocator@D@2@@1@AEBV21@@Z DD imagerel $LN6
	DD	imagerel $LN6+36
	DD	imagerel $unwind$??$_Emplace_back_with_unused_capacity@AEBV?$basic_string@DU?$char_traits@D@std@@V?$allocator@D@2@@std@@@?$vector@V?$basic_string@DU?$char_traits@D@std@@V?$allocator@D@2@@std@@V?$allocator@V?$basic_string@DU?$char_traits@D@std@@V?$allocator@D@2@@std@@@2@@std@@AEAAAEAV?$basic_string@DU?$char_traits@D@std@@V?$allocator@D@2@@1@AEBV21@@Z
pdata	ENDS
;	COMDAT pdata
pdata	SEGMENT
$pdata$??$_Emplace_reallocate@AEBV?$basic_string@DU?$char_traits@D@std@@V?$allocator@D@2@@std@@@?$vector@V?$basic_string@DU?$char_traits@D@std@@V?$allocator@D@2@@std@@V?$allocator@V?$basic_string@DU?$char_traits@D@std@@V?$allocator@D@2@@std@@@2@@std@@QEAAPEAV?$basic_string@DU?$char_traits@D@std@@V?$allocator@D@2@@1@QEAV21@AEBV21@@Z DD imagerel $LN328
	DD	imagerel $LN328+636
	DD	imagerel $unwind$??$_Emplace_reallocate@AEBV?$basic_string@DU?$char_traits@D@std@@V?$allocator@D@2@@std@@@?$vector@V?$basic_string@DU?$char_traits@D@std@@V?$allocator@D@2@@std@@V?$allocator@V?$basic_string@DU?$char_traits@D@std@@V?$allocator@D@2@@std@@@2@@std@@QEAAPEAV?$basic_string@DU?$char_traits@D@std@@V?$allocator@D@2@@1@QEAV21@AEBV21@@Z
pdata	ENDS
;	COMDAT pdata
pdata	SEGMENT
$pdata$?catch$6@?0???$_Emplace_reallocate@AEBV?$basic_string@DU?$char_traits@D@std@@V?$allocator@D@2@@std@@@?$vector@V?$basic_string@DU?$char_traits@D@std@@V?$allocator@D@2@@std@@V?$allocator@V?$basic_string@DU?$char_traits@D@std@@V?$allocator@D@2@@std@@@2@@std@@QEAAPEAV?$basic_string@DU?$char_traits@D@std@@V?$allocator@D@2@@1@QEAV21@AEBV21@@Z@4HA DD imagerel ?catch$6@?0???$_Emplace_reallocate@AEBV?$basic_string@DU?$char_traits@D@std@@V?$allocator@D@2@@std@@@?$vector@V?$basic_string@DU?$char_traits@D@std@@V?$allocator@D@2@@std@@V?$allocator@V?$basic_string@DU?$char_traits@D@std@@V?$allocator@D@2@@std@@@2@@std@@QEAAPEAV?$basic_string@DU?$char_traits@D@std@@V?$allocator@D@2@@1@QEAV21@AEBV21@@Z@4HA
	DD	imagerel ?catch$6@?0???$_Emplace_reallocate@AEBV?$basic_string@DU?$char_traits@D@std@@V?$allocator@D@2@@std@@@?$vector@V?$basic_string@DU?$char_traits@D@std@@V?$allocator@D@2@@std@@V?$allocator@V?$basic_string@DU?$char_traits@D@std@@V?$allocator@D@2@@std@@@2@@std@@QEAAPEAV?$basic_string@DU?$char_traits@D@std@@V?$allocator@D@2@@1@QEAV21@AEBV21@@Z@4HA+58
	DD	imagerel $unwind$?catch$6@?0???$_Emplace_reallocate@AEBV?$basic_string@DU?$char_traits@D@std@@V?$allocator@D@2@@std@@@?$vector@V?$basic_string@DU?$char_traits@D@std@@V?$allocator@D@2@@std@@V?$allocator@V?$basic_string@DU?$char_traits@D@std@@V?$allocator@D@2@@std@@@2@@std@@QEAAPEAV?$basic_string@DU?$char_traits@D@std@@V?$allocator@D@2@@1@QEAV21@AEBV21@@Z@4HA
pdata	ENDS
;	COMDAT pdata
pdata	SEGMENT
$pdata$??$_Emplace_reallocate@PEAU_VM_INSTRUCTION@@@?$vector@PEAU_VM_INSTRUCTION@@V?$allocator@PEAU_VM_INSTRUCTION@@@std@@@std@@QEAAPEAPEAU_VM_INSTRUCTION@@QEAPEAU2@$$QEAPEAU2@@Z DD imagerel $LN92
	DD	imagerel $LN92+411
	DD	imagerel $unwind$??$_Emplace_reallocate@PEAU_VM_INSTRUCTION@@@?$vector@PEAU_VM_INSTRUCTION@@V?$allocator@PEAU_VM_INSTRUCTION@@@std@@@std@@QEAAPEAPEAU_VM_INSTRUCTION@@QEAPEAU2@$$QEAPEAU2@@Z
pdata	ENDS
;	COMDAT pdata
pdata	SEGMENT
$pdata$?catch$0@?0???$_Emplace_reallocate@PEAU_VM_INSTRUCTION@@@?$vector@PEAU_VM_INSTRUCTION@@V?$allocator@PEAU_VM_INSTRUCTION@@@std@@@std@@QEAAPEAPEAU_VM_INSTRUCTION@@QEAPEAU2@$$QEAPEAU2@@Z@4HA DD imagerel ?catch$0@?0???$_Emplace_reallocate@PEAU_VM_INSTRUCTION@@@?$vector@PEAU_VM_INSTRUCTION@@V?$allocator@PEAU_VM_INSTRUCTION@@@std@@@std@@QEAAPEAPEAU_VM_INSTRUCTION@@QEAPEAU2@$$QEAPEAU2@@Z@4HA
	DD	imagerel ?catch$0@?0???$_Emplace_reallocate@PEAU_VM_INSTRUCTION@@@?$vector@PEAU_VM_INSTRUCTION@@V?$allocator@PEAU_VM_INSTRUCTION@@@std@@@std@@QEAAPEAPEAU_VM_INSTRUCTION@@QEAPEAU2@$$QEAPEAU2@@Z@4HA+40
	DD	imagerel $unwind$?catch$0@?0???$_Emplace_reallocate@PEAU_VM_INSTRUCTION@@@?$vector@PEAU_VM_INSTRUCTION@@V?$allocator@PEAU_VM_INSTRUCTION@@@std@@@std@@QEAAPEAPEAU_VM_INSTRUCTION@@QEAPEAU2@$$QEAPEAU2@@Z@4HA
pdata	ENDS
;	COMDAT pdata
pdata	SEGMENT
$pdata$??$_Emplace_reallocate@E@?$vector@EV?$allocator@E@std@@@std@@QEAAPEAEQEAE$$QEAE@Z DD imagerel $LN89
	DD	imagerel $LN89+375
	DD	imagerel $unwind$??$_Emplace_reallocate@E@?$vector@EV?$allocator@E@std@@@std@@QEAAPEAEQEAE$$QEAE@Z
pdata	ENDS
;	COMDAT pdata
pdata	SEGMENT
$pdata$?catch$0@?0???$_Emplace_reallocate@E@?$vector@EV?$allocator@E@std@@@std@@QEAAPEAEQEAE$$QEAE@Z@4HA DD imagerel ?catch$0@?0???$_Emplace_reallocate@E@?$vector@EV?$allocator@E@std@@@std@@QEAAPEAEQEAE$$QEAE@Z@4HA
	DD	imagerel ?catch$0@?0???$_Emplace_reallocate@E@?$vector@EV?$allocator@E@std@@@std@@QEAAPEAEQEAE$$QEAE@Z@4HA+40
	DD	imagerel $unwind$?catch$0@?0???$_Emplace_reallocate@E@?$vector@EV?$allocator@E@std@@@std@@QEAAPEAEQEAE$$QEAE@Z@4HA
pdata	ENDS
;	COMDAT pdata
pdata	SEGMENT
$pdata$??$_Traits_find@U?$char_traits@D@std@@@std@@YA_KQEBD_K101@Z DD imagerel $LN23
	DD	imagerel $LN23+199
	DD	imagerel $unwind$??$_Traits_find@U?$char_traits@D@std@@@std@@YA_KQEBD_K101@Z
pdata	ENDS
;	COMDAT pdata
pdata	SEGMENT
$pdata$??R<lambda_319d5e083f45f90dcdce5dce53cbb275>@@QEBAXQEADQEBD_KD@Z DD imagerel $LN7
	DD	imagerel $LN7+57
	DD	imagerel $unwind$??R<lambda_319d5e083f45f90dcdce5dce53cbb275>@@QEBAXQEADQEBD_KD@Z
pdata	ENDS
;	COMDAT pdata
pdata	SEGMENT
$pdata$??$_Reallocate_grow_by@V<lambda_319d5e083f45f90dcdce5dce53cbb275>@@D@?$basic_string@DU?$char_traits@D@std@@V?$allocator@D@2@@std@@AEAAAEAV01@_KV<lambda_319d5e083f45f90dcdce5dce53cbb275>@@D@Z DD imagerel $LN71
	DD	imagerel $LN71+46
	DD	imagerel $unwind$??$_Reallocate_grow_by@V<lambda_319d5e083f45f90dcdce5dce53cbb275>@@D@?$basic_string@DU?$char_traits@D@std@@V?$allocator@D@2@@std@@AEAAAEAV01@_KV<lambda_319d5e083f45f90dcdce5dce53cbb275>@@D@Z
pdata	ENDS
;	COMDAT pdata
pdata	SEGMENT
$pdata$2$??$_Reallocate_grow_by@V<lambda_319d5e083f45f90dcdce5dce53cbb275>@@D@?$basic_string@DU?$char_traits@D@std@@V?$allocator@D@2@@std@@AEAAAEAV01@_KV<lambda_319d5e083f45f90dcdce5dce53cbb275>@@D@Z DD imagerel $LN71+46
	DD	imagerel $LN71+338
	DD	imagerel $chain$2$??$_Reallocate_grow_by@V<lambda_319d5e083f45f90dcdce5dce53cbb275>@@D@?$basic_string@DU?$char_traits@D@std@@V?$allocator@D@2@@std@@AEAAAEAV01@_KV<lambda_319d5e083f45f90dcdce5dce53cbb275>@@D@Z
pdata	ENDS
;	COMDAT pdata
pdata	SEGMENT
$pdata$4$??$_Reallocate_grow_by@V<lambda_319d5e083f45f90dcdce5dce53cbb275>@@D@?$basic_string@DU?$char_traits@D@std@@V?$allocator@D@2@@std@@AEAAAEAV01@_KV<lambda_319d5e083f45f90dcdce5dce53cbb275>@@D@Z DD imagerel $LN71+338
	DD	imagerel $LN71+344
	DD	imagerel $chain$4$??$_Reallocate_grow_by@V<lambda_319d5e083f45f90dcdce5dce53cbb275>@@D@?$basic_string@DU?$char_traits@D@std@@V?$allocator@D@2@@std@@AEAAAEAV01@_KV<lambda_319d5e083f45f90dcdce5dce53cbb275>@@D@Z
pdata	ENDS
;	COMDAT pdata
pdata	SEGMENT
$pdata$5$??$_Reallocate_grow_by@V<lambda_319d5e083f45f90dcdce5dce53cbb275>@@D@?$basic_string@DU?$char_traits@D@std@@V?$allocator@D@2@@std@@AEAAAEAV01@_KV<lambda_319d5e083f45f90dcdce5dce53cbb275>@@D@Z DD imagerel $LN71+344
	DD	imagerel $LN71+350
	DD	imagerel $chain$5$??$_Reallocate_grow_by@V<lambda_319d5e083f45f90dcdce5dce53cbb275>@@D@?$basic_string@DU?$char_traits@D@std@@V?$allocator@D@2@@std@@AEAAAEAV01@_KV<lambda_319d5e083f45f90dcdce5dce53cbb275>@@D@Z
pdata	ENDS
;	COMDAT pdata
pdata	SEGMENT
$pdata$??R<lambda_66f57f934f28d61049862f64df852ff0>@@QEBAXQEAD_KQEBD@Z DD imagerel $LN7
	DD	imagerel $LN7+42
	DD	imagerel $unwind$??R<lambda_66f57f934f28d61049862f64df852ff0>@@QEBAXQEAD_KQEBD@Z
pdata	ENDS
;	COMDAT pdata
pdata	SEGMENT
$pdata$??$_Reallocate_for@V<lambda_66f57f934f28d61049862f64df852ff0>@@PEBD@?$basic_string@DU?$char_traits@D@std@@V?$allocator@D@2@@std@@AEAAAEAV01@_KV<lambda_66f57f934f28d61049862f64df852ff0>@@PEBD@Z DD imagerel $LN66
	DD	imagerel $LN66+39
	DD	imagerel $unwind$??$_Reallocate_for@V<lambda_66f57f934f28d61049862f64df852ff0>@@PEBD@?$basic_string@DU?$char_traits@D@std@@V?$allocator@D@2@@std@@AEAAAEAV01@_KV<lambda_66f57f934f28d61049862f64df852ff0>@@PEBD@Z
pdata	ENDS
;	COMDAT pdata
pdata	SEGMENT
$pdata$1$??$_Reallocate_for@V<lambda_66f57f934f28d61049862f64df852ff0>@@PEBD@?$basic_string@DU?$char_traits@D@std@@V?$allocator@D@2@@std@@AEAAAEAV01@_KV<lambda_66f57f934f28d61049862f64df852ff0>@@PEBD@Z DD imagerel $LN66+39
	DD	imagerel $LN66+289
	DD	imagerel $chain$1$??$_Reallocate_for@V<lambda_66f57f934f28d61049862f64df852ff0>@@PEBD@?$basic_string@DU?$char_traits@D@std@@V?$allocator@D@2@@std@@AEAAAEAV01@_KV<lambda_66f57f934f28d61049862f64df852ff0>@@PEBD@Z
pdata	ENDS
;	COMDAT pdata
pdata	SEGMENT
$pdata$3$??$_Reallocate_for@V<lambda_66f57f934f28d61049862f64df852ff0>@@PEBD@?$basic_string@DU?$char_traits@D@std@@V?$allocator@D@2@@std@@AEAAAEAV01@_KV<lambda_66f57f934f28d61049862f64df852ff0>@@PEBD@Z DD imagerel $LN66+289
	DD	imagerel $LN66+302
	DD	imagerel $chain$3$??$_Reallocate_for@V<lambda_66f57f934f28d61049862f64df852ff0>@@PEBD@?$basic_string@DU?$char_traits@D@std@@V?$allocator@D@2@@std@@AEAAAEAV01@_KV<lambda_66f57f934f28d61049862f64df852ff0>@@PEBD@Z
pdata	ENDS
;	COMDAT pdata
pdata	SEGMENT
$pdata$4$??$_Reallocate_for@V<lambda_66f57f934f28d61049862f64df852ff0>@@PEBD@?$basic_string@DU?$char_traits@D@std@@V?$allocator@D@2@@std@@AEAAAEAV01@_KV<lambda_66f57f934f28d61049862f64df852ff0>@@PEBD@Z DD imagerel $LN66+302
	DD	imagerel $LN66+308
	DD	imagerel $chain$4$??$_Reallocate_for@V<lambda_66f57f934f28d61049862f64df852ff0>@@PEBD@?$basic_string@DU?$char_traits@D@std@@V?$allocator@D@2@@std@@AEAAAEAV01@_KV<lambda_66f57f934f28d61049862f64df852ff0>@@PEBD@Z
pdata	ENDS
;	COMDAT pdata
pdata	SEGMENT
$pdata$??$_Deallocate@$0BA@$0A@@std@@YAXPEAX_K@Z DD imagerel $LN18
	DD	imagerel $LN18+53
	DD	imagerel $unwind$??$_Deallocate@$0BA@$0A@@std@@YAXPEAX_K@Z
pdata	ENDS
;	COMDAT pdata
pdata	SEGMENT
$pdata$??$_Destroy_range@V?$allocator@V?$basic_string@DU?$char_traits@D@std@@V?$allocator@D@2@@std@@@std@@@std@@YAXPEAV?$basic_string@DU?$char_traits@D@std@@V?$allocator@D@2@@0@QEAV10@AEAV?$allocator@V?$basic_string@DU?$char_traits@D@std@@V?$allocator@D@2@@std@@@0@@Z DD imagerel $LN51
	DD	imagerel $LN51+15
	DD	imagerel $unwind$??$_Destroy_range@V?$allocator@V?$basic_string@DU?$char_traits@D@std@@V?$allocator@D@2@@std@@@std@@@std@@YAXPEAV?$basic_string@DU?$char_traits@D@std@@V?$allocator@D@2@@0@QEAV10@AEAV?$allocator@V?$basic_string@DU?$char_traits@D@std@@V?$allocator@D@2@@std@@@0@@Z
pdata	ENDS
;	COMDAT pdata
pdata	SEGMENT
$pdata$0$??$_Destroy_range@V?$allocator@V?$basic_string@DU?$char_traits@D@std@@V?$allocator@D@2@@std@@@std@@@std@@YAXPEAV?$basic_string@DU?$char_traits@D@std@@V?$allocator@D@2@@0@QEAV10@AEAV?$allocator@V?$basic_string@DU?$char_traits@D@std@@V?$allocator@D@2@@std@@@0@@Z DD imagerel $LN51+15
	DD	imagerel $LN51+125
	DD	imagerel $chain$0$??$_Destroy_range@V?$allocator@V?$basic_string@DU?$char_traits@D@std@@V?$allocator@D@2@@std@@@std@@@std@@YAXPEAV?$basic_string@DU?$char_traits@D@std@@V?$allocator@D@2@@0@QEAV10@AEAV?$allocator@V?$basic_string@DU?$char_traits@D@std@@V?$allocator@D@2@@std@@@0@@Z
pdata	ENDS
;	COMDAT pdata
pdata	SEGMENT
$pdata$1$??$_Destroy_range@V?$allocator@V?$basic_string@DU?$char_traits@D@std@@V?$allocator@D@2@@std@@@std@@@std@@YAXPEAV?$basic_string@DU?$char_traits@D@std@@V?$allocator@D@2@@0@QEAV10@AEAV?$allocator@V?$basic_string@DU?$char_traits@D@std@@V?$allocator@D@2@@std@@@0@@Z DD imagerel $LN51+125
	DD	imagerel $LN51+126
	DD	imagerel $chain$1$??$_Destroy_range@V?$allocator@V?$basic_string@DU?$char_traits@D@std@@V?$allocator@D@2@@std@@@std@@@std@@YAXPEAV?$basic_string@DU?$char_traits@D@std@@V?$allocator@D@2@@0@QEAV10@AEAV?$allocator@V?$basic_string@DU?$char_traits@D@std@@V?$allocator@D@2@@std@@@0@@Z
pdata	ENDS
;	COMDAT pdata
pdata	SEGMENT
$pdata$2$??$_Destroy_range@V?$allocator@V?$basic_string@DU?$char_traits@D@std@@V?$allocator@D@2@@std@@@std@@@std@@YAXPEAV?$basic_string@DU?$char_traits@D@std@@V?$allocator@D@2@@0@QEAV10@AEAV?$allocator@V?$basic_string@DU?$char_traits@D@std@@V?$allocator@D@2@@std@@@0@@Z DD imagerel $LN51+126
	DD	imagerel $LN51+133
	DD	imagerel $chain$2$??$_Destroy_range@V?$allocator@V?$basic_string@DU?$char_traits@D@std@@V?$allocator@D@2@@std@@@std@@@std@@YAXPEAV?$basic_string@DU?$char_traits@D@std@@V?$allocator@D@2@@0@QEAV10@AEAV?$allocator@V?$basic_string@DU?$char_traits@D@std@@V?$allocator@D@2@@std@@@0@@Z
pdata	ENDS
;	COMDAT pdata
pdata	SEGMENT
$pdata$??$_Allocate@$0BA@U_Default_allocate_traits@std@@$0A@@std@@YAPEAX_K@Z DD imagerel $LN24
	DD	imagerel $LN24+89
	DD	imagerel $unwind$??$_Allocate@$0BA@U_Default_allocate_traits@std@@$0A@@std@@YAPEAX_K@Z
pdata	ENDS
;	COMDAT pdata
pdata	SEGMENT
$pdata$??$getline@DU?$char_traits@D@std@@V?$allocator@D@2@@std@@YAAEAV?$basic_istream@DU?$char_traits@D@std@@@0@$$QEAV10@AEAV?$basic_string@DU?$char_traits@D@std@@V?$allocator@D@2@@0@D@Z DD imagerel $LN83
	DD	imagerel $LN83+418
	DD	imagerel $unwind$??$getline@DU?$char_traits@D@std@@V?$allocator@D@2@@std@@YAAEAV?$basic_istream@DU?$char_traits@D@std@@@0@$$QEAV10@AEAV?$basic_string@DU?$char_traits@D@std@@V?$allocator@D@2@@0@D@Z
pdata	ENDS
;	COMDAT pdata
pdata	SEGMENT
$pdata$?catch$4@?0???$getline@DU?$char_traits@D@std@@V?$allocator@D@2@@std@@YAAEAV?$basic_istream@DU?$char_traits@D@std@@@0@$$QEAV10@AEAV?$basic_string@DU?$char_traits@D@std@@V?$allocator@D@2@@0@D@Z@4HA DD imagerel ?catch$4@?0???$getline@DU?$char_traits@D@std@@V?$allocator@D@2@@std@@YAAEAV?$basic_istream@DU?$char_traits@D@std@@@0@$$QEAV10@AEAV?$basic_string@DU?$char_traits@D@std@@V?$allocator@D@2@@0@D@Z@4HA
	DD	imagerel ?catch$4@?0???$getline@DU?$char_traits@D@std@@V?$allocator@D@2@@std@@YAAEAV?$basic_istream@DU?$char_traits@D@std@@@0@$$QEAV10@AEAV?$basic_string@DU?$char_traits@D@std@@V?$allocator@D@2@@0@D@Z@4HA+59
	DD	imagerel $unwind$?catch$4@?0???$getline@DU?$char_traits@D@std@@V?$allocator@D@2@@std@@YAAEAV?$basic_istream@DU?$char_traits@D@std@@@0@$$QEAV10@AEAV?$basic_string@DU?$char_traits@D@std@@V?$allocator@D@2@@0@D@Z@4HA
pdata	ENDS
;	COMDAT pdata
pdata	SEGMENT
$pdata$??R?$_Rng_from_urng@_JV?$mersenne_twister_engine@I$0CA@$0CHA@$0BIN@$0BP@$0JJAILANP@$0L@$0PPPPPPPP@$06$0JNCMFGIA@$0P@$0OPMGAAAA@$0BC@$0GMAHIJGF@@std@@@std@@QEAA_J_J@Z DD imagerel $LN59
	DD	imagerel $LN59+608
	DD	imagerel $unwind$??R?$_Rng_from_urng@_JV?$mersenne_twister_engine@I$0CA@$0CHA@$0BIN@$0BP@$0JJAILANP@$0L@$0PPPPPPPP@$06$0JNCMFGIA@$0P@$0OPMGAAAA@$0BC@$0GMAHIJGF@@std@@@std@@QEAA_J_J@Z
pdata	ENDS
;	COMDAT pdata
pdata	SEGMENT
$pdata$?_Get_bits@?$_Rng_from_urng@_JV?$mersenne_twister_engine@I$0CA@$0CHA@$0BIN@$0BP@$0JJAILANP@$0L@$0PPPPPPPP@$06$0JNCMFGIA@$0P@$0OPMGAAAA@$0BC@$0GMAHIJGF@@std@@@std@@AEAA_KXZ DD imagerel $LN43
	DD	imagerel $LN43+451
	DD	imagerel $unwind$?_Get_bits@?$_Rng_from_urng@_JV?$mersenne_twister_engine@I$0CA@$0CHA@$0BIN@$0BP@$0JJAILANP@$0L@$0PPPPPPPP@$06$0JNCMFGIA@$0P@$0OPMGAAAA@$0BC@$0GMAHIJGF@@std@@@std@@AEAA_KXZ
pdata	ENDS
;	COMDAT pdata
pdata	SEGMENT
$pdata$??$_Random_shuffle1@V?$_Vector_iterator@V?$_Vector_val@U?$_Simple_types@PEAU_VM_INSTRUCTION@@@std@@@std@@@std@@V?$_Rng_from_urng@_JV?$mersenne_twister_engine@I$0CA@$0CHA@$0BIN@$0BP@$0JJAILANP@$0L@$0PPPPPPPP@$06$0JNCMFGIA@$0P@$0OPMGAAAA@$0BC@$0GMAHIJGF@@std@@@2@@std@@YAXV?$_Vector_iterator@V?$_Vector_val@U?$_Simple_types@PEAU_VM_INSTRUCTION@@@std@@@std@@@0@0AEAV?$_Rng_from_urng@_JV?$mersenne_twister_engine@I$0CA@$0CHA@$0BIN@$0BP@$0JJAILANP@$0L@$0PPPPPPPP@$06$0JNCMFGIA@$0P@$0OPMGAAAA@$0BC@$0GMAHIJGF@@std@@@0@@Z DD imagerel $LN78
	DD	imagerel $LN78+22
	DD	imagerel $unwind$??$_Random_shuffle1@V?$_Vector_iterator@V?$_Vector_val@U?$_Simple_types@PEAU_VM_INSTRUCTION@@@std@@@std@@@std@@V?$_Rng_from_urng@_JV?$mersenne_twister_engine@I$0CA@$0CHA@$0BIN@$0BP@$0JJAILANP@$0L@$0PPPPPPPP@$06$0JNCMFGIA@$0P@$0OPMGAAAA@$0BC@$0GMAHIJGF@@std@@@2@@std@@YAXV?$_Vector_iterator@V?$_Vector_val@U?$_Simple_types@PEAU_VM_INSTRUCTION@@@std@@@std@@@0@0AEAV?$_Rng_from_urng@_JV?$mersenne_twister_engine@I$0CA@$0CHA@$0BIN@$0BP@$0JJAILANP@$0L@$0PPPPPPPP@$06$0JNCMFGIA@$0P@$0OPMGAAAA@$0BC@$0GMAHIJGF@@std@@@0@@Z
pdata	ENDS
;	COMDAT pdata
pdata	SEGMENT
$pdata$0$??$_Random_shuffle1@V?$_Vector_iterator@V?$_Vector_val@U?$_Simple_types@PEAU_VM_INSTRUCTION@@@std@@@std@@@std@@V?$_Rng_from_urng@_JV?$mersenne_twister_engine@I$0CA@$0CHA@$0BIN@$0BP@$0JJAILANP@$0L@$0PPPPPPPP@$06$0JNCMFGIA@$0P@$0OPMGAAAA@$0BC@$0GMAHIJGF@@std@@@2@@std@@YAXV?$_Vector_iterator@V?$_Vector_val@U?$_Simple_types@PEAU_VM_INSTRUCTION@@@std@@@std@@@0@0AEAV?$_Rng_from_urng@_JV?$mersenne_twister_engine@I$0CA@$0CHA@$0BIN@$0BP@$0JJAILANP@$0L@$0PPPPPPPP@$06$0JNCMFGIA@$0P@$0OPMGAAAA@$0BC@$0GMAHIJGF@@std@@@0@@Z DD imagerel $LN78+22
	DD	imagerel $LN78+54
	DD	imagerel $chain$0$??$_Random_shuffle1@V?$_Vector_iterator@V?$_Vector_val@U?$_Simple_types@PEAU_VM_INSTRUCTION@@@std@@@std@@@std@@V?$_Rng_from_urng@_JV?$mersenne_twister_engine@I$0CA@$0CHA@$0BIN@$0BP@$0JJAILANP@$0L@$0PPPPPPPP@$06$0JNCMFGIA@$0P@$0OPMGAAAA@$0BC@$0GMAHIJGF@@std@@@2@@std@@YAXV?$_Vector_iterator@V?$_Vector_val@U?$_Simple_types@PEAU_VM_INSTRUCTION@@@std@@@std@@@0@0AEAV?$_Rng_from_urng@_JV?$mersenne_twister_engine@I$0CA@$0CHA@$0BIN@$0BP@$0JJAILANP@$0L@$0PPPPPPPP@$06$0JNCMFGIA@$0P@$0OPMGAAAA@$0BC@$0GMAHIJGF@@std@@@0@@Z
pdata	ENDS
;	COMDAT pdata
pdata	SEGMENT
$pdata$6$??$_Random_shuffle1@V?$_Vector_iterator@V?$_Vector_val@U?$_Simple_types@PEAU_VM_INSTRUCTION@@@std@@@std@@@std@@V?$_Rng_from_urng@_JV?$mersenne_twister_engine@I$0CA@$0CHA@$0BIN@$0BP@$0JJAILANP@$0L@$0PPPPPPPP@$06$0JNCMFGIA@$0P@$0OPMGAAAA@$0BC@$0GMAHIJGF@@std@@@2@@std@@YAXV?$_Vector_iterator@V?$_Vector_val@U?$_Simple_types@PEAU_VM_INSTRUCTION@@@std@@@std@@@0@0AEAV?$_Rng_from_urng@_JV?$mersenne_twister_engine@I$0CA@$0CHA@$0BIN@$0BP@$0JJAILANP@$0L@$0PPPPPPPP@$06$0JNCMFGIA@$0P@$0OPMGAAAA@$0BC@$0GMAHIJGF@@std@@@0@@Z DD imagerel $LN78+54
	DD	imagerel $LN78+691
	DD	imagerel $chain$6$??$_Random_shuffle1@V?$_Vector_iterator@V?$_Vector_val@U?$_Simple_types@PEAU_VM_INSTRUCTION@@@std@@@std@@@std@@V?$_Rng_from_urng@_JV?$mersenne_twister_engine@I$0CA@$0CHA@$0BIN@$0BP@$0JJAILANP@$0L@$0PPPPPPPP@$06$0JNCMFGIA@$0P@$0OPMGAAAA@$0BC@$0GMAHIJGF@@std@@@2@@std@@YAXV?$_Vector_iterator@V?$_Vector_val@U?$_Simple_types@PEAU_VM_INSTRUCTION@@@std@@@std@@@0@0AEAV?$_Rng_from_urng@_JV?$mersenne_twister_engine@I$0CA@$0CHA@$0BIN@$0BP@$0JJAILANP@$0L@$0PPPPPPPP@$06$0JNCMFGIA@$0P@$0OPMGAAAA@$0BC@$0GMAHIJGF@@std@@@0@@Z
pdata	ENDS
;	COMDAT pdata
pdata	SEGMENT
$pdata$7$??$_Random_shuffle1@V?$_Vector_iterator@V?$_Vector_val@U?$_Simple_types@PEAU_VM_INSTRUCTION@@@std@@@std@@@std@@V?$_Rng_from_urng@_JV?$mersenne_twister_engine@I$0CA@$0CHA@$0BIN@$0BP@$0JJAILANP@$0L@$0PPPPPPPP@$06$0JNCMFGIA@$0P@$0OPMGAAAA@$0BC@$0GMAHIJGF@@std@@@2@@std@@YAXV?$_Vector_iterator@V?$_Vector_val@U?$_Simple_types@PEAU_VM_INSTRUCTION@@@std@@@std@@@0@0AEAV?$_Rng_from_urng@_JV?$mersenne_twister_engine@I$0CA@$0CHA@$0BIN@$0BP@$0JJAILANP@$0L@$0PPPPPPPP@$06$0JNCMFGIA@$0P@$0OPMGAAAA@$0BC@$0GMAHIJGF@@std@@@0@@Z DD imagerel $LN78+691
	DD	imagerel $LN78+702
	DD	imagerel $chain$7$??$_Random_shuffle1@V?$_Vector_iterator@V?$_Vector_val@U?$_Simple_types@PEAU_VM_INSTRUCTION@@@std@@@std@@@std@@V?$_Rng_from_urng@_JV?$mersenne_twister_engine@I$0CA@$0CHA@$0BIN@$0BP@$0JJAILANP@$0L@$0PPPPPPPP@$06$0JNCMFGIA@$0P@$0OPMGAAAA@$0BC@$0GMAHIJGF@@std@@@2@@std@@YAXV?$_Vector_iterator@V?$_Vector_val@U?$_Simple_types@PEAU_VM_INSTRUCTION@@@std@@@std@@@0@0AEAV?$_Rng_from_urng@_JV?$mersenne_twister_engine@I$0CA@$0CHA@$0BIN@$0BP@$0JJAILANP@$0L@$0PPPPPPPP@$06$0JNCMFGIA@$0P@$0OPMGAAAA@$0BC@$0GMAHIJGF@@std@@@0@@Z
pdata	ENDS
;	COMDAT pdata
pdata	SEGMENT
$pdata$8$??$_Random_shuffle1@V?$_Vector_iterator@V?$_Vector_val@U?$_Simple_types@PEAU_VM_INSTRUCTION@@@std@@@std@@@std@@V?$_Rng_from_urng@_JV?$mersenne_twister_engine@I$0CA@$0CHA@$0BIN@$0BP@$0JJAILANP@$0L@$0PPPPPPPP@$06$0JNCMFGIA@$0P@$0OPMGAAAA@$0BC@$0GMAHIJGF@@std@@@2@@std@@YAXV?$_Vector_iterator@V?$_Vector_val@U?$_Simple_types@PEAU_VM_INSTRUCTION@@@std@@@std@@@0@0AEAV?$_Rng_from_urng@_JV?$mersenne_twister_engine@I$0CA@$0CHA@$0BIN@$0BP@$0JJAILANP@$0L@$0PPPPPPPP@$06$0JNCMFGIA@$0P@$0OPMGAAAA@$0BC@$0GMAHIJGF@@std@@@0@@Z DD imagerel $LN78+702
	DD	imagerel $LN78+703
	DD	imagerel $chain$8$??$_Random_shuffle1@V?$_Vector_iterator@V?$_Vector_val@U?$_Simple_types@PEAU_VM_INSTRUCTION@@@std@@@std@@@std@@V?$_Rng_from_urng@_JV?$mersenne_twister_engine@I$0CA@$0CHA@$0BIN@$0BP@$0JJAILANP@$0L@$0PPPPPPPP@$06$0JNCMFGIA@$0P@$0OPMGAAAA@$0BC@$0GMAHIJGF@@std@@@2@@std@@YAXV?$_Vector_iterator@V?$_Vector_val@U?$_Simple_types@PEAU_VM_INSTRUCTION@@@std@@@std@@@0@0AEAV?$_Rng_from_urng@_JV?$mersenne_twister_engine@I$0CA@$0CHA@$0BIN@$0BP@$0JJAILANP@$0L@$0PPPPPPPP@$06$0JNCMFGIA@$0P@$0OPMGAAAA@$0BC@$0GMAHIJGF@@std@@@0@@Z
pdata	ENDS
;	COMDAT pdata
pdata	SEGMENT
$pdata$??$destroy@V?$basic_string@DU?$char_traits@D@std@@V?$allocator@D@2@@std@@@?$_Default_allocator_traits@V?$allocator@V?$basic_string@DU?$char_traits@D@std@@V?$allocator@D@2@@std@@@std@@@std@@SAXAEAV?$allocator@V?$basic_string@DU?$char_traits@D@std@@V?$allocator@D@2@@std@@@1@QEAV?$basic_string@DU?$char_traits@D@std@@V?$allocator@D@2@@1@@Z DD imagerel $LN38
	DD	imagerel $LN38+95
	DD	imagerel $unwind$??$destroy@V?$basic_string@DU?$char_traits@D@std@@V?$allocator@D@2@@std@@@?$_Default_allocator_traits@V?$allocator@V?$basic_string@DU?$char_traits@D@std@@V?$allocator@D@2@@std@@@std@@@std@@SAXAEAV?$allocator@V?$basic_string@DU?$char_traits@D@std@@V?$allocator@D@2@@std@@@1@QEAV?$basic_string@DU?$char_traits@D@std@@V?$allocator@D@2@@1@@Z
pdata	ENDS
;	COMDAT pdata
pdata	SEGMENT
$pdata$??$_Allocate_manually_vector_aligned@U_Default_allocate_traits@std@@@std@@YAPEAX_K@Z DD imagerel $LN17
	DD	imagerel $LN17+59
	DD	imagerel $unwind$??$_Allocate_manually_vector_aligned@U_Default_allocate_traits@std@@@std@@YAPEAX_K@Z
pdata	ENDS
;	COMDAT pdata
pdata	SEGMENT
$pdata$??$_Uninitialized_move@PEAU_VM_SYMBOL@@V?$allocator@U_VM_SYMBOL@@@std@@@std@@YAPEAU_VM_SYMBOL@@QEAU1@0PEAU1@AEAV?$allocator@U_VM_SYMBOL@@@0@@Z DD imagerel $LN6
	DD	imagerel $LN6+78
	DD	imagerel $unwind$??$_Uninitialized_move@PEAU_VM_SYMBOL@@V?$allocator@U_VM_SYMBOL@@@std@@@std@@YAPEAU_VM_SYMBOL@@QEAU1@0PEAU1@AEAV?$allocator@U_VM_SYMBOL@@@0@@Z
pdata	ENDS
;	COMDAT pdata
pdata	SEGMENT
$pdata$??$_Get_size_of_n@$0CE@@std@@YA_K_K@Z DD imagerel $LN7
	DD	imagerel $LN7+38
	DD	imagerel $unwind$??$_Get_size_of_n@$0CE@@std@@YA_K_K@Z
pdata	ENDS
;	COMDAT pdata
pdata	SEGMENT
$pdata$??$_Get_size_of_n@$0CA@@std@@YA_K_K@Z DD imagerel $LN7
	DD	imagerel $LN7+37
	DD	imagerel $unwind$??$_Get_size_of_n@$0CA@@std@@YA_K_K@Z
pdata	ENDS
;	COMDAT pdata
pdata	SEGMENT
$pdata$??$_Uninitialized_move@PEAPEAU_VM_INSTRUCTION@@V?$allocator@PEAU_VM_INSTRUCTION@@@std@@@std@@YAPEAPEAU_VM_INSTRUCTION@@QEAPEAU1@0PEAPEAU1@AEAV?$allocator@PEAU_VM_INSTRUCTION@@@0@@Z DD imagerel $LN6
	DD	imagerel $LN6+52
	DD	imagerel $unwind$??$_Uninitialized_move@PEAPEAU_VM_INSTRUCTION@@V?$allocator@PEAU_VM_INSTRUCTION@@@std@@@std@@YAPEAPEAU_VM_INSTRUCTION@@QEAPEAU1@0PEAPEAU1@AEAV?$allocator@PEAU_VM_INSTRUCTION@@@0@@Z
pdata	ENDS
;	COMDAT pdata
pdata	SEGMENT
$pdata$??$_Get_size_of_n@$07@std@@YA_K_K@Z DD imagerel $LN7
	DD	imagerel $LN7+38
	DD	imagerel $unwind$??$_Get_size_of_n@$07@std@@YA_K_K@Z
pdata	ENDS
;	COMDAT pdata
pdata	SEGMENT
$pdata$??$_Uninitialized_move@PEAEV?$allocator@E@std@@@std@@YAPEAEQEAE0PEAEAEAV?$allocator@E@0@@Z DD imagerel $LN6
	DD	imagerel $LN6+49
	DD	imagerel $unwind$??$_Uninitialized_move@PEAEV?$allocator@E@std@@@std@@YAPEAEQEAE0PEAEAEAV?$allocator@E@0@@Z
pdata	ENDS
;	COMDAT pdata
pdata	SEGMENT
$pdata$??$_Traits_equal@U?$char_traits@D@std@@@std@@YA_NQEBD_K01@Z DD imagerel $LN9
	DD	imagerel $LN9+41
	DD	imagerel $unwind$??$_Traits_equal@U?$char_traits@D@std@@@std@@YA_NQEBD_K01@Z
pdata	ENDS
;	COMDAT pdata
pdata	SEGMENT
$pdata$??0_Sentry_base@?$basic_istream@DU?$char_traits@D@std@@@std@@QEAA@AEAV12@@Z DD imagerel $LN8
	DD	imagerel $LN8+44
	DD	imagerel $unwind$??0_Sentry_base@?$basic_istream@DU?$char_traits@D@std@@@std@@QEAA@AEAV12@@Z
pdata	ENDS
;	COMDAT pdata
pdata	SEGMENT
$pdata$??1_Sentry_base@?$basic_istream@DU?$char_traits@D@std@@@std@@QEAA@XZ DD imagerel $LN8
	DD	imagerel $LN8+36
	DD	imagerel $unwind$??1_Sentry_base@?$basic_istream@DU?$char_traits@D@std@@@std@@QEAA@XZ
pdata	ENDS
;	COMDAT pdata
pdata	SEGMENT
$pdata$??0sentry@?$basic_istream@DU?$char_traits@D@std@@@std@@QEAA@AEAV12@_N@Z DD imagerel $LN11
	DD	imagerel $LN11+79
	DD	imagerel $unwind$??0sentry@?$basic_istream@DU?$char_traits@D@std@@@std@@QEAA@AEAV12@_N@Z
pdata	ENDS
;	COMDAT pdata
pdata	SEGMENT
$pdata$??1sentry@?$basic_istream@DU?$char_traits@D@std@@@std@@QEAA@XZ DD imagerel $LN12
	DD	imagerel $LN12+36
	DD	imagerel $unwind$??1sentry@?$basic_istream@DU?$char_traits@D@std@@@std@@QEAA@XZ
pdata	ENDS
;	COMDAT pdata
pdata	SEGMENT
$pdata$??$_Copy_memmove@PEAU_VM_SYMBOL@@PEAU1@@std@@YAPEAU_VM_SYMBOL@@PEAU1@00@Z DD imagerel $LN4
	DD	imagerel $LN4+48
	DD	imagerel $unwind$??$_Copy_memmove@PEAU_VM_SYMBOL@@PEAU1@@std@@YAPEAU_VM_SYMBOL@@PEAU1@00@Z
pdata	ENDS
;	COMDAT pdata
pdata	SEGMENT
$pdata$??$_Copy_memmove@PEAPEAU_VM_INSTRUCTION@@PEAPEAU1@@std@@YAPEAPEAU_VM_INSTRUCTION@@PEAPEAU1@00@Z DD imagerel $LN4
	DD	imagerel $LN4+48
	DD	imagerel $unwind$??$_Copy_memmove@PEAPEAU_VM_INSTRUCTION@@PEAPEAU1@@std@@YAPEAPEAU_VM_INSTRUCTION@@PEAPEAU1@00@Z
pdata	ENDS
;	COMDAT pdata
pdata	SEGMENT
$pdata$??$_Copy_memmove@PEAEPEAE@std@@YAPEAEPEAE00@Z DD imagerel $LN4
	DD	imagerel $LN4+48
	DD	imagerel $unwind$??$_Copy_memmove@PEAEPEAE@std@@YAPEAEPEAE00@Z
pdata	ENDS
;	COMDAT ??_R1A@?0A@EA@bad_cast@std@@8
rdata$r	SEGMENT
??_R1A@?0A@EA@bad_cast@std@@8 DD imagerel ??_R0?AVbad_cast@std@@@8 ; std::bad_cast::`RTTI Base Class Descriptor at (0,-1,0,64)'
	DD	01H
	DD	00H
	DD	0ffffffffH
	DD	00H
	DD	040H
	DD	imagerel ??_R3bad_cast@std@@8
rdata$r	ENDS
;	COMDAT ??_R2bad_cast@std@@8
rdata$r	SEGMENT
??_R2bad_cast@std@@8 DD imagerel ??_R1A@?0A@EA@bad_cast@std@@8 ; std::bad_cast::`RTTI Base Class Array'
	DD	imagerel ??_R1A@?0A@EA@exception@std@@8
	ORG $+3
rdata$r	ENDS
;	COMDAT ??_R3bad_cast@std@@8
rdata$r	SEGMENT
??_R3bad_cast@std@@8 DD 00H				; std::bad_cast::`RTTI Class Hierarchy Descriptor'
	DD	00H
	DD	02H
	DD	imagerel ??_R2bad_cast@std@@8
rdata$r	ENDS
;	COMDAT ??_R4bad_cast@std@@6B@
rdata$r	SEGMENT
??_R4bad_cast@std@@6B@ DD 01H				; std::bad_cast::`RTTI Complete Object Locator'
	DD	00H
	DD	00H
	DD	imagerel ??_R0?AVbad_cast@std@@@8
	DD	imagerel ??_R3bad_cast@std@@8
	DD	imagerel ??_R4bad_cast@std@@6B@
rdata$r	ENDS
;	COMDAT ??_R1A@?0A@EA@bad_array_new_length@std@@8
rdata$r	SEGMENT
??_R1A@?0A@EA@bad_array_new_length@std@@8 DD imagerel ??_R0?AVbad_array_new_length@std@@@8 ; std::bad_array_new_length::`RTTI Base Class Descriptor at (0,-1,0,64)'
	DD	02H
	DD	00H
	DD	0ffffffffH
	DD	00H
	DD	040H
	DD	imagerel ??_R3bad_array_new_length@std@@8
rdata$r	ENDS
;	COMDAT ??_R2bad_array_new_length@std@@8
rdata$r	SEGMENT
??_R2bad_array_new_length@std@@8 DD imagerel ??_R1A@?0A@EA@bad_array_new_length@std@@8 ; std::bad_array_new_length::`RTTI Base Class Array'
	DD	imagerel ??_R1A@?0A@EA@bad_alloc@std@@8
	DD	imagerel ??_R1A@?0A@EA@exception@std@@8
	ORG $+3
rdata$r	ENDS
;	COMDAT ??_R3bad_array_new_length@std@@8
rdata$r	SEGMENT
??_R3bad_array_new_length@std@@8 DD 00H			; std::bad_array_new_length::`RTTI Class Hierarchy Descriptor'
	DD	00H
	DD	03H
	DD	imagerel ??_R2bad_array_new_length@std@@8
rdata$r	ENDS
;	COMDAT ??_R4bad_array_new_length@std@@6B@
rdata$r	SEGMENT
??_R4bad_array_new_length@std@@6B@ DD 01H		; std::bad_array_new_length::`RTTI Complete Object Locator'
	DD	00H
	DD	00H
	DD	imagerel ??_R0?AVbad_array_new_length@std@@@8
	DD	imagerel ??_R3bad_array_new_length@std@@8
	DD	imagerel ??_R4bad_array_new_length@std@@6B@
rdata$r	ENDS
;	COMDAT ??_R1A@?0A@EA@bad_alloc@std@@8
rdata$r	SEGMENT
??_R1A@?0A@EA@bad_alloc@std@@8 DD imagerel ??_R0?AVbad_alloc@std@@@8 ; std::bad_alloc::`RTTI Base Class Descriptor at (0,-1,0,64)'
	DD	01H
	DD	00H
	DD	0ffffffffH
	DD	00H
	DD	040H
	DD	imagerel ??_R3bad_alloc@std@@8
rdata$r	ENDS
;	COMDAT ??_R2bad_alloc@std@@8
rdata$r	SEGMENT
??_R2bad_alloc@std@@8 DD imagerel ??_R1A@?0A@EA@bad_alloc@std@@8 ; std::bad_alloc::`RTTI Base Class Array'
	DD	imagerel ??_R1A@?0A@EA@exception@std@@8
	ORG $+3
rdata$r	ENDS
;	COMDAT ??_R3bad_alloc@std@@8
rdata$r	SEGMENT
??_R3bad_alloc@std@@8 DD 00H				; std::bad_alloc::`RTTI Class Hierarchy Descriptor'
	DD	00H
	DD	02H
	DD	imagerel ??_R2bad_alloc@std@@8
rdata$r	ENDS
;	COMDAT ??_R4bad_alloc@std@@6B@
rdata$r	SEGMENT
??_R4bad_alloc@std@@6B@ DD 01H				; std::bad_alloc::`RTTI Complete Object Locator'
	DD	00H
	DD	00H
	DD	imagerel ??_R0?AVbad_alloc@std@@@8
	DD	imagerel ??_R3bad_alloc@std@@8
	DD	imagerel ??_R4bad_alloc@std@@6B@
rdata$r	ENDS
;	COMDAT ??_R1A@?0A@EA@exception@std@@8
rdata$r	SEGMENT
??_R1A@?0A@EA@exception@std@@8 DD imagerel ??_R0?AVexception@std@@@8 ; std::exception::`RTTI Base Class Descriptor at (0,-1,0,64)'
	DD	00H
	DD	00H
	DD	0ffffffffH
	DD	00H
	DD	040H
	DD	imagerel ??_R3exception@std@@8
rdata$r	ENDS
;	COMDAT ??_R2exception@std@@8
rdata$r	SEGMENT
??_R2exception@std@@8 DD imagerel ??_R1A@?0A@EA@exception@std@@8 ; std::exception::`RTTI Base Class Array'
	ORG $+3
rdata$r	ENDS
;	COMDAT ??_R3exception@std@@8
rdata$r	SEGMENT
??_R3exception@std@@8 DD 00H				; std::exception::`RTTI Class Hierarchy Descriptor'
	DD	00H
	DD	01H
	DD	imagerel ??_R2exception@std@@8
rdata$r	ENDS
;	COMDAT ??_R4exception@std@@6B@
rdata$r	SEGMENT
??_R4exception@std@@6B@ DD 01H				; std::exception::`RTTI Complete Object Locator'
	DD	00H
	DD	00H
	DD	imagerel ??_R0?AVexception@std@@@8
	DD	imagerel ??_R3exception@std@@8
	DD	imagerel ??_R4exception@std@@6B@
rdata$r	ENDS
;	COMDAT ??_R17A@3EA@?$_Iosb@H@std@@8
rdata$r	SEGMENT
??_R17A@3EA@?$_Iosb@H@std@@8 DD imagerel ??_R0?AV?$_Iosb@H@std@@@8 ; std::_Iosb<int>::`RTTI Base Class Descriptor at (8,0,4,64)'
	DD	00H
	DD	08H
	DD	00H
	DD	04H
	DD	040H
	DD	imagerel ??_R3?$_Iosb@H@std@@8
rdata$r	ENDS
;	COMDAT ??_R1A@A@3EA@ios_base@std@@8
rdata$r	SEGMENT
??_R1A@A@3EA@ios_base@std@@8 DD imagerel ??_R0?AVios_base@std@@@8 ; std::ios_base::`RTTI Base Class Descriptor at (0,0,4,64)'
	DD	01H
	DD	00H
	DD	00H
	DD	04H
	DD	040H
	DD	imagerel ??_R3ios_base@std@@8
rdata$r	ENDS
;	COMDAT ??_R1A@?0A@EA@?$_Iosb@H@std@@8
rdata$r	SEGMENT
??_R1A@?0A@EA@?$_Iosb@H@std@@8 DD imagerel ??_R0?AV?$_Iosb@H@std@@@8 ; std::_Iosb<int>::`RTTI Base Class Descriptor at (0,-1,0,64)'
	DD	00H
	DD	00H
	DD	0ffffffffH
	DD	00H
	DD	040H
	DD	imagerel ??_R3?$_Iosb@H@std@@8
rdata$r	ENDS
;	COMDAT ??_R2?$_Iosb@H@std@@8
rdata$r	SEGMENT
??_R2?$_Iosb@H@std@@8 DD imagerel ??_R1A@?0A@EA@?$_Iosb@H@std@@8 ; std::_Iosb<int>::`RTTI Base Class Array'
	ORG $+3
rdata$r	ENDS
;	COMDAT ??_R3?$_Iosb@H@std@@8
rdata$r	SEGMENT
??_R3?$_Iosb@H@std@@8 DD 00H				; std::_Iosb<int>::`RTTI Class Hierarchy Descriptor'
	DD	00H
	DD	01H
	DD	imagerel ??_R2?$_Iosb@H@std@@8
rdata$r	ENDS
;	COMDAT ??_R0?AV?$_Iosb@H@std@@@8
data$r	SEGMENT
??_R0?AV?$_Iosb@H@std@@@8 DQ FLAT:??_7type_info@@6B@	; std::_Iosb<int> `RTTI Type Descriptor'
	DQ	0000000000000000H
	DB	'.?AV?$_Iosb@H@std@@', 00H
data$r	ENDS
;	COMDAT ??_R17?0A@EA@?$_Iosb@H@std@@8
rdata$r	SEGMENT
??_R17?0A@EA@?$_Iosb@H@std@@8 DD imagerel ??_R0?AV?$_Iosb@H@std@@@8 ; std::_Iosb<int>::`RTTI Base Class Descriptor at (8,-1,0,64)'
	DD	00H
	DD	08H
	DD	0ffffffffH
	DD	00H
	DD	040H
	DD	imagerel ??_R3?$_Iosb@H@std@@8
rdata$r	ENDS
;	COMDAT ??_R2ios_base@std@@8
rdata$r	SEGMENT
??_R2ios_base@std@@8 DD imagerel ??_R1A@?0A@EA@ios_base@std@@8 ; std::ios_base::`RTTI Base Class Array'
	DD	imagerel ??_R17?0A@EA@?$_Iosb@H@std@@8
	ORG $+3
rdata$r	ENDS
;	COMDAT ??_R3ios_base@std@@8
rdata$r	SEGMENT
??_R3ios_base@std@@8 DD 00H				; std::ios_base::`RTTI Class Hierarchy Descriptor'
	DD	00H
	DD	02H
	DD	imagerel ??_R2ios_base@std@@8
rdata$r	ENDS
;	COMDAT ??_R0?AVios_base@std@@@8
data$r	SEGMENT
??_R0?AVios_base@std@@@8 DQ FLAT:??_7type_info@@6B@	; std::ios_base `RTTI Type Descriptor'
	DQ	0000000000000000H
	DB	'.?AVios_base@std@@', 00H
data$r	ENDS
;	COMDAT ??_R1A@?0A@EA@ios_base@std@@8
rdata$r	SEGMENT
??_R1A@?0A@EA@ios_base@std@@8 DD imagerel ??_R0?AVios_base@std@@@8 ; std::ios_base::`RTTI Base Class Descriptor at (0,-1,0,64)'
	DD	01H
	DD	00H
	DD	0ffffffffH
	DD	00H
	DD	040H
	DD	imagerel ??_R3ios_base@std@@8
rdata$r	ENDS
;	COMDAT ??_R1A@?0A@EA@?$basic_ios@DU?$char_traits@D@std@@@std@@8
rdata$r	SEGMENT
??_R1A@?0A@EA@?$basic_ios@DU?$char_traits@D@std@@@std@@8 DD imagerel ??_R0?AV?$basic_ios@DU?$char_traits@D@std@@@std@@@8 ; std::basic_ios<char,std::char_traits<char> >::`RTTI Base Class Descriptor at (0,-1,0,64)'
	DD	02H
	DD	00H
	DD	0ffffffffH
	DD	00H
	DD	040H
	DD	imagerel ??_R3?$basic_ios@DU?$char_traits@D@std@@@std@@8
rdata$r	ENDS
;	COMDAT ??_R2?$basic_ios@DU?$char_traits@D@std@@@std@@8
rdata$r	SEGMENT
??_R2?$basic_ios@DU?$char_traits@D@std@@@std@@8 DD imagerel ??_R1A@?0A@EA@?$basic_ios@DU?$char_traits@D@std@@@std@@8 ; std::basic_ios<char,std::char_traits<char> >::`RTTI Base Class Array'
	DD	imagerel ??_R1A@?0A@EA@ios_base@std@@8
	DD	imagerel ??_R17?0A@EA@?$_Iosb@H@std@@8
	ORG $+3
rdata$r	ENDS
;	COMDAT ??_R3?$basic_ios@DU?$char_traits@D@std@@@std@@8
rdata$r	SEGMENT
??_R3?$basic_ios@DU?$char_traits@D@std@@@std@@8 DD 00H	; std::basic_ios<char,std::char_traits<char> >::`RTTI Class Hierarchy Descriptor'
	DD	00H
	DD	03H
	DD	imagerel ??_R2?$basic_ios@DU?$char_traits@D@std@@@std@@8
rdata$r	ENDS
;	COMDAT ??_R0?AV?$basic_ios@DU?$char_traits@D@std@@@std@@@8
data$r	SEGMENT
??_R0?AV?$basic_ios@DU?$char_traits@D@std@@@std@@@8 DQ FLAT:??_7type_info@@6B@ ; std::basic_ios<char,std::char_traits<char> > `RTTI Type Descriptor'
	DQ	0000000000000000H
	DB	'.?AV?$basic_ios@DU?$char_traits@D@std@@@std@@', 00H
data$r	ENDS
;	COMDAT ??_R1A@A@3FA@?$basic_ios@DU?$char_traits@D@std@@@std@@8
rdata$r	SEGMENT
??_R1A@A@3FA@?$basic_ios@DU?$char_traits@D@std@@@std@@8 DD imagerel ??_R0?AV?$basic_ios@DU?$char_traits@D@std@@@std@@@8 ; std::basic_ios<char,std::char_traits<char> >::`RTTI Base Class Descriptor at (0,0,4,80)'
	DD	02H
	DD	00H
	DD	00H
	DD	04H
	DD	050H
	DD	imagerel ??_R3?$basic_ios@DU?$char_traits@D@std@@@std@@8
rdata$r	ENDS
;	COMDAT ??_R2?$basic_istream@DU?$char_traits@D@std@@@std@@8
rdata$r	SEGMENT
??_R2?$basic_istream@DU?$char_traits@D@std@@@std@@8 DD imagerel ??_R1A@?0A@EA@?$basic_istream@DU?$char_traits@D@std@@@std@@8 ; std::basic_istream<char,std::char_traits<char> >::`RTTI Base Class Array'
	DD	imagerel ??_R1A@A@3FA@?$basic_ios@DU?$char_traits@D@std@@@std@@8
	DD	imagerel ??_R1A@A@3EA@ios_base@std@@8
	DD	imagerel ??_R17A@3EA@?$_Iosb@H@std@@8
	ORG $+3
rdata$r	ENDS
;	COMDAT ??_R3?$basic_istream@DU?$char_traits@D@std@@@std@@8
rdata$r	SEGMENT
??_R3?$basic_istream@DU?$char_traits@D@std@@@std@@8 DD 00H ; std::basic_istream<char,std::char_traits<char> >::`RTTI Class Hierarchy Descriptor'
	DD	00H
	DD	04H
	DD	imagerel ??_R2?$basic_istream@DU?$char_traits@D@std@@@std@@8
rdata$r	ENDS
;	COMDAT ??_R0?AV?$basic_istream@DU?$char_traits@D@std@@@std@@@8
data$r	SEGMENT
??_R0?AV?$basic_istream@DU?$char_traits@D@std@@@std@@@8 DQ FLAT:??_7type_info@@6B@ ; std::basic_istream<char,std::char_traits<char> > `RTTI Type Descriptor'
	DQ	0000000000000000H
	DB	'.?AV?$basic_istream@DU?$char_traits@D@std@@@std@@', 00H
data$r	ENDS
;	COMDAT ??_R1A@?0A@EA@?$basic_istream@DU?$char_traits@D@std@@@std@@8
rdata$r	SEGMENT
??_R1A@?0A@EA@?$basic_istream@DU?$char_traits@D@std@@@std@@8 DD imagerel ??_R0?AV?$basic_istream@DU?$char_traits@D@std@@@std@@@8 ; std::basic_istream<char,std::char_traits<char> >::`RTTI Base Class Descriptor at (0,-1,0,64)'
	DD	03H
	DD	00H
	DD	0ffffffffH
	DD	00H
	DD	040H
	DD	imagerel ??_R3?$basic_istream@DU?$char_traits@D@std@@@std@@8
rdata$r	ENDS
;	COMDAT ??_R1A@?0A@EA@?$basic_ifstream@DU?$char_traits@D@std@@@std@@8
rdata$r	SEGMENT
??_R1A@?0A@EA@?$basic_ifstream@DU?$char_traits@D@std@@@std@@8 DD imagerel ??_R0?AV?$basic_ifstream@DU?$char_traits@D@std@@@std@@@8 ; std::basic_ifstream<char,std::char_traits<char> >::`RTTI Base Class Descriptor at (0,-1,0,64)'
	DD	04H
	DD	00H
	DD	0ffffffffH
	DD	00H
	DD	040H
	DD	imagerel ??_R3?$basic_ifstream@DU?$char_traits@D@std@@@std@@8
rdata$r	ENDS
;	COMDAT ??_R2?$basic_ifstream@DU?$char_traits@D@std@@@std@@8
rdata$r	SEGMENT
??_R2?$basic_ifstream@DU?$char_traits@D@std@@@std@@8 DD imagerel ??_R1A@?0A@EA@?$basic_ifstream@DU?$char_traits@D@std@@@std@@8 ; std::basic_ifstream<char,std::char_traits<char> >::`RTTI Base Class Array'
	DD	imagerel ??_R1A@?0A@EA@?$basic_istream@DU?$char_traits@D@std@@@std@@8
	DD	imagerel ??_R1A@A@3FA@?$basic_ios@DU?$char_traits@D@std@@@std@@8
	DD	imagerel ??_R1A@A@3EA@ios_base@std@@8
	DD	imagerel ??_R17A@3EA@?$_Iosb@H@std@@8
	ORG $+3
rdata$r	ENDS
;	COMDAT ??_R3?$basic_ifstream@DU?$char_traits@D@std@@@std@@8
rdata$r	SEGMENT
??_R3?$basic_ifstream@DU?$char_traits@D@std@@@std@@8 DD 00H ; std::basic_ifstream<char,std::char_traits<char> >::`RTTI Class Hierarchy Descriptor'
	DD	00H
	DD	05H
	DD	imagerel ??_R2?$basic_ifstream@DU?$char_traits@D@std@@@std@@8
rdata$r	ENDS
;	COMDAT ??_R0?AV?$basic_ifstream@DU?$char_traits@D@std@@@std@@@8
data$r	SEGMENT
??_R0?AV?$basic_ifstream@DU?$char_traits@D@std@@@std@@@8 DQ FLAT:??_7type_info@@6B@ ; std::basic_ifstream<char,std::char_traits<char> > `RTTI Type Descriptor'
	DQ	0000000000000000H
	DB	'.?AV?$basic_ifstream@DU?$char_traits@D@std@@@std@@', 00H
data$r	ENDS
;	COMDAT ??_R4?$basic_ifstream@DU?$char_traits@D@std@@@std@@6B@
rdata$r	SEGMENT
??_R4?$basic_ifstream@DU?$char_traits@D@std@@@std@@6B@ DD 01H ; std::basic_ifstream<char,std::char_traits<char> >::`RTTI Complete Object Locator'
	DD	0b0H
	DD	04H
	DD	imagerel ??_R0?AV?$basic_ifstream@DU?$char_traits@D@std@@@std@@@8
	DD	imagerel ??_R3?$basic_ifstream@DU?$char_traits@D@std@@@std@@8
	DD	imagerel ??_R4?$basic_ifstream@DU?$char_traits@D@std@@@std@@6B@
rdata$r	ENDS
;	COMDAT ??_R2?$basic_streambuf@DU?$char_traits@D@std@@@std@@8
rdata$r	SEGMENT
??_R2?$basic_streambuf@DU?$char_traits@D@std@@@std@@8 DD imagerel ??_R1A@?0A@EA@?$basic_streambuf@DU?$char_traits@D@std@@@std@@8 ; std::basic_streambuf<char,std::char_traits<char> >::`RTTI Base Class Array'
	ORG $+3
rdata$r	ENDS
;	COMDAT ??_R3?$basic_streambuf@DU?$char_traits@D@std@@@std@@8
rdata$r	SEGMENT
??_R3?$basic_streambuf@DU?$char_traits@D@std@@@std@@8 DD 00H ; std::basic_streambuf<char,std::char_traits<char> >::`RTTI Class Hierarchy Descriptor'
	DD	00H
	DD	01H
	DD	imagerel ??_R2?$basic_streambuf@DU?$char_traits@D@std@@@std@@8
rdata$r	ENDS
;	COMDAT ??_R0?AV?$basic_streambuf@DU?$char_traits@D@std@@@std@@@8
data$r	SEGMENT
??_R0?AV?$basic_streambuf@DU?$char_traits@D@std@@@std@@@8 DQ FLAT:??_7type_info@@6B@ ; std::basic_streambuf<char,std::char_traits<char> > `RTTI Type Descriptor'
	DQ	0000000000000000H
	DB	'.?AV?$basic_streambuf@DU?$char_traits@D@std@@@std@@', 00H
data$r	ENDS
;	COMDAT ??_R1A@?0A@EA@?$basic_streambuf@DU?$char_traits@D@std@@@std@@8
rdata$r	SEGMENT
??_R1A@?0A@EA@?$basic_streambuf@DU?$char_traits@D@std@@@std@@8 DD imagerel ??_R0?AV?$basic_streambuf@DU?$char_traits@D@std@@@std@@@8 ; std::basic_streambuf<char,std::char_traits<char> >::`RTTI Base Class Descriptor at (0,-1,0,64)'
	DD	00H
	DD	00H
	DD	0ffffffffH
	DD	00H
	DD	040H
	DD	imagerel ??_R3?$basic_streambuf@DU?$char_traits@D@std@@@std@@8
rdata$r	ENDS
;	COMDAT ??_R1A@?0A@EA@?$basic_filebuf@DU?$char_traits@D@std@@@std@@8
rdata$r	SEGMENT
??_R1A@?0A@EA@?$basic_filebuf@DU?$char_traits@D@std@@@std@@8 DD imagerel ??_R0?AV?$basic_filebuf@DU?$char_traits@D@std@@@std@@@8 ; std::basic_filebuf<char,std::char_traits<char> >::`RTTI Base Class Descriptor at (0,-1,0,64)'
	DD	01H
	DD	00H
	DD	0ffffffffH
	DD	00H
	DD	040H
	DD	imagerel ??_R3?$basic_filebuf@DU?$char_traits@D@std@@@std@@8
rdata$r	ENDS
;	COMDAT ??_R2?$basic_filebuf@DU?$char_traits@D@std@@@std@@8
rdata$r	SEGMENT
??_R2?$basic_filebuf@DU?$char_traits@D@std@@@std@@8 DD imagerel ??_R1A@?0A@EA@?$basic_filebuf@DU?$char_traits@D@std@@@std@@8 ; std::basic_filebuf<char,std::char_traits<char> >::`RTTI Base Class Array'
	DD	imagerel ??_R1A@?0A@EA@?$basic_streambuf@DU?$char_traits@D@std@@@std@@8
	ORG $+3
rdata$r	ENDS
;	COMDAT ??_R3?$basic_filebuf@DU?$char_traits@D@std@@@std@@8
rdata$r	SEGMENT
??_R3?$basic_filebuf@DU?$char_traits@D@std@@@std@@8 DD 00H ; std::basic_filebuf<char,std::char_traits<char> >::`RTTI Class Hierarchy Descriptor'
	DD	00H
	DD	02H
	DD	imagerel ??_R2?$basic_filebuf@DU?$char_traits@D@std@@@std@@8
rdata$r	ENDS
;	COMDAT ??_R0?AV?$basic_filebuf@DU?$char_traits@D@std@@@std@@@8
data$r	SEGMENT
??_R0?AV?$basic_filebuf@DU?$char_traits@D@std@@@std@@@8 DQ FLAT:??_7type_info@@6B@ ; std::basic_filebuf<char,std::char_traits<char> > `RTTI Type Descriptor'
	DQ	0000000000000000H
	DB	'.?AV?$basic_filebuf@DU?$char_traits@D@std@@@std@@', 00H
data$r	ENDS
;	COMDAT ??_R4?$basic_filebuf@DU?$char_traits@D@std@@@std@@6B@
rdata$r	SEGMENT
??_R4?$basic_filebuf@DU?$char_traits@D@std@@@std@@6B@ DD 01H ; std::basic_filebuf<char,std::char_traits<char> >::`RTTI Complete Object Locator'
	DD	00H
	DD	00H
	DD	imagerel ??_R0?AV?$basic_filebuf@DU?$char_traits@D@std@@@std@@@8
	DD	imagerel ??_R3?$basic_filebuf@DU?$char_traits@D@std@@@std@@8
	DD	imagerel ??_R4?$basic_filebuf@DU?$char_traits@D@std@@@std@@6B@
rdata$r	ENDS
;	COMDAT ??_C@_0BA@FOIKENOD@vector?5too?5long@
CONST	SEGMENT
??_C@_0BA@FOIKENOD@vector?5too?5long@ DB 'vector too long', 00H ; `string'
CONST	ENDS
;	COMDAT ??_C@_0BI@CFPLBAOH@invalid?5string?5position@
CONST	SEGMENT
??_C@_0BI@CFPLBAOH@invalid?5string?5position@ DB 'invalid string position'
	DB	00H						; `string'
CONST	ENDS
;	COMDAT ??_C@_05PDJBBECF@pause@
CONST	SEGMENT
??_C@_05PDJBBECF@pause@ DB 'pause', 00H			; `string'
CONST	ENDS
;	COMDAT ??_C@_0BH@MGKFCHMA@Ur?5out?5of?5memory?5son?4?6@
CONST	SEGMENT
??_C@_0BH@MGKFCHMA@Ur?5out?5of?5memory?5son?4?6@ DB 'Ur out of memory son'
	DB	'.', 0aH, 00H				; `string'
CONST	ENDS
;	COMDAT ??_C@_01CLKCMJKC@?5@
CONST	SEGMENT
??_C@_01CLKCMJKC@?5@ DB ' ', 00H			; `string'
CONST	ENDS
;	COMDAT ??_C@_0BO@EBMDFMC@THIS?5IS?5THE?5START?5XDDDDDD?$CB?$CB?$CB?$CB@
CONST	SEGMENT
??_C@_0BO@EBMDFMC@THIS?5IS?5THE?5START?5XDDDDDD?$CB?$CB?$CB?$CB@ DB 'THIS'
	DB	' IS THE START XDDDDDD!!!!', 00H		; `string'
CONST	ENDS
;	COMDAT ??_8?$basic_ifstream@DU?$char_traits@D@std@@@std@@7B@
CONST	SEGMENT
??_8?$basic_ifstream@DU?$char_traits@D@std@@@std@@7B@ DD 00H ; std::basic_ifstream<char,std::char_traits<char> >::`vbtable'
	DD	0b0H
CONST	ENDS
;	COMDAT ??_7?$basic_ifstream@DU?$char_traits@D@std@@@std@@6B@
CONST	SEGMENT
??_7?$basic_ifstream@DU?$char_traits@D@std@@@std@@6B@ DQ FLAT:??_R4?$basic_ifstream@DU?$char_traits@D@std@@@std@@6B@ ; std::basic_ifstream<char,std::char_traits<char> >::`vftable'
	DQ	FLAT:??_E?$basic_ifstream@DU?$char_traits@D@std@@@std@@$4PPPPPPPM@A@EAAPEAXI@Z
CONST	ENDS
;	COMDAT ??_7?$basic_filebuf@DU?$char_traits@D@std@@@std@@6B@
CONST	SEGMENT
??_7?$basic_filebuf@DU?$char_traits@D@std@@@std@@6B@ DQ FLAT:??_R4?$basic_filebuf@DU?$char_traits@D@std@@@std@@6B@ ; std::basic_filebuf<char,std::char_traits<char> >::`vftable'
	DQ	FLAT:??_E?$basic_filebuf@DU?$char_traits@D@std@@@std@@UEAAPEAXI@Z
	DQ	FLAT:?_Lock@?$basic_filebuf@DU?$char_traits@D@std@@@std@@UEAAXXZ
	DQ	FLAT:?_Unlock@?$basic_filebuf@DU?$char_traits@D@std@@@std@@UEAAXXZ
	DQ	FLAT:?overflow@?$basic_filebuf@DU?$char_traits@D@std@@@std@@MEAAHH@Z
	DQ	FLAT:?pbackfail@?$basic_filebuf@DU?$char_traits@D@std@@@std@@MEAAHH@Z
	DQ	FLAT:?showmanyc@?$basic_streambuf@DU?$char_traits@D@std@@@std@@MEAA_JXZ
	DQ	FLAT:?underflow@?$basic_filebuf@DU?$char_traits@D@std@@@std@@MEAAHXZ
	DQ	FLAT:?uflow@?$basic_filebuf@DU?$char_traits@D@std@@@std@@MEAAHXZ
	DQ	FLAT:?xsgetn@?$basic_filebuf@DU?$char_traits@D@std@@@std@@MEAA_JPEAD_J@Z
	DQ	FLAT:?xsputn@?$basic_filebuf@DU?$char_traits@D@std@@@std@@MEAA_JPEBD_J@Z
	DQ	FLAT:?seekoff@?$basic_filebuf@DU?$char_traits@D@std@@@std@@MEAA?AV?$fpos@U_Mbstatet@@@2@_JHH@Z
	DQ	FLAT:?seekpos@?$basic_filebuf@DU?$char_traits@D@std@@@std@@MEAA?AV?$fpos@U_Mbstatet@@@2@V32@H@Z
	DQ	FLAT:?setbuf@?$basic_filebuf@DU?$char_traits@D@std@@@std@@MEAAPEAV?$basic_streambuf@DU?$char_traits@D@std@@@2@PEAD_J@Z
	DQ	FLAT:?sync@?$basic_filebuf@DU?$char_traits@D@std@@@std@@MEAAHXZ
	DQ	FLAT:?imbue@?$basic_filebuf@DU?$char_traits@D@std@@@std@@MEAAXAEBVlocale@2@@Z
CONST	ENDS
;	COMDAT ??_C@_03FPMPLLLB@R31@
CONST	SEGMENT
??_C@_03FPMPLLLB@R31@ DB 'R31', 00H			; `string'
CONST	ENDS
;	COMDAT ??_C@_03EGNEIKPA@R30@
CONST	SEGMENT
??_C@_03EGNEIKPA@R30@ DB 'R30', 00H			; `string'
CONST	ENDS
;	COMDAT ??_C@_03JGNEFLIO@R29@
CONST	SEGMENT
??_C@_03JGNEFLIO@R29@ DB 'R29', 00H			; `string'
CONST	ENDS
;	COMDAT ??_C@_03IPMPGKMP@R28@
CONST	SEGMENT
??_C@_03IPMPGKMP@R28@ DB 'R28', 00H			; `string'
CONST	ENDS
;	COMDAT ??_C@_03IFHHGAA@R27@
CONST	SEGMENT
??_C@_03IFHHGAA@R27@ DB 'R27', 00H			; `string'
CONST	ENDS
;	COMDAT ??_C@_03BBEMEHEB@R26@
CONST	SEGMENT
??_C@_03BBEMEHEB@R26@ DB 'R26', 00H			; `string'
CONST	ENDS
;	COMDAT ??_C@_03DKGBBEIC@R25@
CONST	SEGMENT
??_C@_03DKGBBEIC@R25@ DB 'R25', 00H			; `string'
CONST	ENDS
;	COMDAT ??_C@_03CDHKCFMD@R24@
CONST	SEGMENT
??_C@_03CDHKCFMD@R24@ DB 'R24', 00H			; `string'
CONST	ENDS
;	COMDAT ??_C@_03GMDLLDAE@R23@
CONST	SEGMENT
??_C@_03GMDLLDAE@R23@ DB 'R23', 00H			; `string'
CONST	ENDS
;	COMDAT ??_C@_03HFCAICEF@R22@
CONST	SEGMENT
??_C@_03HFCAICEF@R22@ DB 'R22', 00H			; `string'
CONST	ENDS
;	COMDAT ??_C@_03FOANNBIG@R21@
CONST	SEGMENT
??_C@_03FOANNBIG@R21@ DB 'R21', 00H			; `string'
CONST	ENDS
;	COMDAT ??_C@_03EHBGOAMH@R20@
CONST	SEGMENT
??_C@_03EHBGOAMH@R20@ DB 'R20', 00H			; `string'
CONST	ENDS
;	COMDAT ??_C@_03JEJCOFNH@R19@
CONST	SEGMENT
??_C@_03JEJCOFNH@R19@ DB 'R19', 00H			; `string'
CONST	ENDS
;	COMDAT ??_C@_03INIJNEJG@R18@
CONST	SEGMENT
??_C@_03INIJNEJG@R18@ DB 'R18', 00H			; `string'
CONST	ENDS
;	COMDAT ??_C@_03KBBMIFJ@R17@
CONST	SEGMENT
??_C@_03KBBMIFJ@R17@ DB 'R17', 00H			; `string'
CONST	ENDS
;	COMDAT ??_C@_03BDAKPJBI@R16@
CONST	SEGMENT
??_C@_03BDAKPJBI@R16@ DB 'R16', 00H			; `string'
CONST	ENDS
;	COMDAT ??_C@_03DICHKKNL@R15@
CONST	SEGMENT
??_C@_03DICHKKNL@R15@ DB 'R15', 00H			; `string'
CONST	ENDS
;	COMDAT ??_C@_03CBDMJLJK@R14@
CONST	SEGMENT
??_C@_03CBDMJLJK@R14@ DB 'R14', 00H			; `string'
CONST	ENDS
;	COMDAT ??_C@_03GOHNANFN@R13@
CONST	SEGMENT
??_C@_03GOHNANFN@R13@ DB 'R13', 00H			; `string'
CONST	ENDS
;	COMDAT ??_C@_03HHGGDMBM@R12@
CONST	SEGMENT
??_C@_03HHGGDMBM@R12@ DB 'R12', 00H			; `string'
CONST	ENDS
;	COMDAT ??_C@_03FMELGPNP@R11@
CONST	SEGMENT
??_C@_03FMELGPNP@R11@ DB 'R11', 00H			; `string'
CONST	ENDS
;	COMDAT ??_C@_03EFFAFOJO@R10@
CONST	SEGMENT
??_C@_03EFFAFOJO@R10@ DB 'R10', 00H			; `string'
CONST	ENDS
;	COMDAT ??_C@_02GBACFBIJ@R9@
CONST	SEGMENT
??_C@_02GBACFBIJ@R9@ DB 'R9', 00H			; `string'
CONST	ENDS
;	COMDAT ??_C@_02HIBJGAMI@R8@
CONST	SEGMENT
??_C@_02HIBJGAMI@R8@ DB 'R8', 00H			; `string'
CONST	ENDS
;	COMDAT ??_C@_02PPIBHMAH@R7@
CONST	SEGMENT
??_C@_02PPIBHMAH@R7@ DB 'R7', 00H			; `string'
CONST	ENDS
;	COMDAT ??_C@_02OGJKENEG@R6@
CONST	SEGMENT
??_C@_02OGJKENEG@R6@ DB 'R6', 00H			; `string'
CONST	ENDS
;	COMDAT ??_C@_02MNLHBOIF@R5@
CONST	SEGMENT
??_C@_02MNLHBOIF@R5@ DB 'R5', 00H			; `string'
CONST	ENDS
;	COMDAT ??_C@_02NEKMCPME@R4@
CONST	SEGMENT
??_C@_02NEKMCPME@R4@ DB 'R4', 00H			; `string'
CONST	ENDS
;	COMDAT ??_C@_02JLONLJAD@R3@
CONST	SEGMENT
??_C@_02JLONLJAD@R3@ DB 'R3', 00H			; `string'
CONST	ENDS
;	COMDAT ??_C@_02ICPGIIEC@R2@
CONST	SEGMENT
??_C@_02ICPGIIEC@R2@ DB 'R2', 00H			; `string'
CONST	ENDS
;	COMDAT ??_C@_02KJNLNLIB@R1@
CONST	SEGMENT
??_C@_02KJNLNLIB@R1@ DB 'R1', 00H			; `string'
CONST	ENDS
;	COMDAT ??_C@_02MJBLCCBH@BP@
CONST	SEGMENT
??_C@_02MJBLCCBH@BP@ DB 'BP', 00H			; `string'
CONST	ENDS
;	COMDAT ?RegisterBindings@@3PAPEBDA
_DATA	SEGMENT
?RegisterBindings@@3PAPEBDA DQ FLAT:??_C@_02MJBLCCBH@BP@ ; RegisterBindings
	DQ	FLAT:??_C@_02KJNLNLIB@R1@
	DQ	FLAT:??_C@_02ICPGIIEC@R2@
	DQ	FLAT:??_C@_02JLONLJAD@R3@
	DQ	FLAT:??_C@_02NEKMCPME@R4@
	DQ	FLAT:??_C@_02MNLHBOIF@R5@
	DQ	FLAT:??_C@_02OGJKENEG@R6@
	DQ	FLAT:??_C@_02PPIBHMAH@R7@
	DQ	FLAT:??_C@_02HIBJGAMI@R8@
	DQ	FLAT:??_C@_02GBACFBIJ@R9@
	DQ	FLAT:??_C@_03EFFAFOJO@R10@
	DQ	FLAT:??_C@_03FMELGPNP@R11@
	DQ	FLAT:??_C@_03HHGGDMBM@R12@
	DQ	FLAT:??_C@_03GOHNANFN@R13@
	DQ	FLAT:??_C@_03CBDMJLJK@R14@
	DQ	FLAT:??_C@_03DICHKKNL@R15@
	DQ	FLAT:??_C@_03BDAKPJBI@R16@
	DQ	FLAT:??_C@_03KBBMIFJ@R17@
	DQ	FLAT:??_C@_03INIJNEJG@R18@
	DQ	FLAT:??_C@_03JEJCOFNH@R19@
	DQ	FLAT:??_C@_03EHBGOAMH@R20@
	DQ	FLAT:??_C@_03FOANNBIG@R21@
	DQ	FLAT:??_C@_03HFCAICEF@R22@
	DQ	FLAT:??_C@_03GMDLLDAE@R23@
	DQ	FLAT:??_C@_03CDHKCFMD@R24@
	DQ	FLAT:??_C@_03DKGBBEIC@R25@
	DQ	FLAT:??_C@_03BBEMEHEB@R26@
	DQ	FLAT:??_C@_03IFHHGAA@R27@
	DQ	FLAT:??_C@_03IPMPGKMP@R28@
	DQ	FLAT:??_C@_03JGNEFLIO@R29@
	DQ	FLAT:??_C@_03EGNEIKPA@R30@
	DQ	FLAT:??_C@_03FPMPLLLB@R31@
_DATA	ENDS
;	COMDAT ??_C@_05PHLFJPBN@STBPQ@
CONST	SEGMENT
??_C@_05PHLFJPBN@STBPQ@ DB 'STBPQ', 00H			; `string'
CONST	ENDS
;	COMDAT ??_C@_05MAAAHJAJ@STBPD@
CONST	SEGMENT
??_C@_05MAAAHJAJ@STBPD@ DB 'STBPD', 00H			; `string'
CONST	ENDS
;	COMDAT ??_C@_05KBOPDIJL@STBPW@
CONST	SEGMENT
??_C@_05KBOPDIJL@STBPW@ DB 'STBPW', 00H			; `string'
CONST	ENDS
;	COMDAT ??_C@_05JGFKNOIP@STBPB@
CONST	SEGMENT
??_C@_05JGFKNOIP@STBPB@ DB 'STBPB', 00H			; `string'
CONST	ENDS
;	COMDAT ??_C@_05GFNFLINB@LDBPQ@
CONST	SEGMENT
??_C@_05GFNFLINB@LDBPQ@ DB 'LDBPQ', 00H			; `string'
CONST	ENDS
;	COMDAT ??_C@_05FCGAFOMF@LDBPD@
CONST	SEGMENT
??_C@_05FCGAFOMF@LDBPD@ DB 'LDBPD', 00H			; `string'
CONST	ENDS
;	COMDAT ??_C@_05DDIPBPFH@LDBPW@
CONST	SEGMENT
??_C@_05DDIPBPFH@LDBPW@ DB 'LDBPW', 00H			; `string'
CONST	ENDS
;	COMDAT ??_C@_05EDKPJED@LDBPB@
CONST	SEGMENT
??_C@_05EDKPJED@LDBPB@ DB 'LDBPB', 00H			; `string'
CONST	ENDS
;	COMDAT ??_C@_04MPFLNJPA@STSQ@
CONST	SEGMENT
??_C@_04MPFLNJPA@STSQ@ DB 'STSQ', 00H			; `string'
CONST	ENDS
;	COMDAT ??_C@_04PIOODPOE@STSD@
CONST	SEGMENT
??_C@_04PIOODPOE@STSD@ DB 'STSD', 00H			; `string'
CONST	ENDS
;	COMDAT ??_C@_04JJABHOHG@STSW@
CONST	SEGMENT
??_C@_04JJABHOHG@STSW@ DB 'STSW', 00H			; `string'
CONST	ENDS
;	COMDAT ??_C@_04KOLEJIGC@STSB@
CONST	SEGMENT
??_C@_04KOLEJIGC@STSB@ DB 'STSB', 00H			; `string'
CONST	ENDS
;	COMDAT ??_C@_04HNPCIODM@LDSQ@
CONST	SEGMENT
??_C@_04HNPCIODM@LDSQ@ DB 'LDSQ', 00H			; `string'
CONST	ENDS
;	COMDAT ??_C@_04EKEHGICI@LDSD@
CONST	SEGMENT
??_C@_04EKEHGICI@LDSD@ DB 'LDSD', 00H			; `string'
CONST	ENDS
;	COMDAT ??_C@_04CLKICJLK@LDSW@
CONST	SEGMENT
??_C@_04CLKICJLK@LDSW@ DB 'LDSW', 00H			; `string'
CONST	ENDS
;	COMDAT ??_C@_04BMBNMPKO@LDSB@
CONST	SEGMENT
??_C@_04BMBNMPKO@LDSB@ DB 'LDSB', 00H			; `string'
CONST	ENDS
;	COMDAT ??_C@_06BLIINMLG@SWAPDQ@
CONST	SEGMENT
??_C@_06BLIINMLG@SWAPDQ@ DB 'SWAPDQ', 00H		; `string'
CONST	ENDS
;	COMDAT ??_C@_06FOIMBJP@SWAPWQ@
CONST	SEGMENT
??_C@_06FOIMBJP@SWAPWQ@ DB 'SWAPWQ', 00H		; `string'
CONST	ENDS
;	COMDAT ??_C@_06BPAFKAAE@SWAPBQ@
CONST	SEGMENT
??_C@_06BPAFKAAE@SWAPBQ@ DB 'SWAPBQ', 00H		; `string'
CONST	ENDS
;	COMDAT ??_C@_04MGIJECFI@INCQ@
CONST	SEGMENT
??_C@_04MGIJECFI@INCQ@ DB 'INCQ', 00H			; `string'
CONST	ENDS
;	COMDAT ??_C@_04PBDMKEEM@INCD@
CONST	SEGMENT
??_C@_04PBDMKEEM@INCD@ DB 'INCD', 00H			; `string'
CONST	ENDS
;	COMDAT ??_C@_04JANDOFNO@INCW@
CONST	SEGMENT
??_C@_04JANDOFNO@INCW@ DB 'INCW', 00H			; `string'
CONST	ENDS
;	COMDAT ??_C@_04KHGGADMK@INCB@
CONST	SEGMENT
??_C@_04KHGGADMK@INCB@ DB 'INCB', 00H			; `string'
CONST	ENDS
;	COMDAT ??_C@_04OJBIABOI@DECQ@
CONST	SEGMENT
??_C@_04OJBIABOI@DECQ@ DB 'DECQ', 00H			; `string'
CONST	ENDS
;	COMDAT ??_C@_04NOKNOHPM@DECD@
CONST	SEGMENT
??_C@_04NOKNOHPM@DECD@ DB 'DECD', 00H			; `string'
CONST	ENDS
;	COMDAT ??_C@_04LPECKGGO@DECW@
CONST	SEGMENT
??_C@_04LPECKGGO@DECW@ DB 'DECW', 00H			; `string'
CONST	ENDS
;	COMDAT ??_C@_04IIPHEAHK@DECB@
CONST	SEGMENT
??_C@_04IIPHEAHK@DECB@ DB 'DECB', 00H			; `string'
CONST	ENDS
;	COMDAT ??_C@_05KCKAEKCD@SWAPQ@
CONST	SEGMENT
??_C@_05KCKAEKCD@SWAPQ@ DB 'SWAPQ', 00H			; `string'
CONST	ENDS
;	COMDAT ??_C@_05JFBFKMDH@SWAPD@
CONST	SEGMENT
??_C@_05JFBFKMDH@SWAPD@ DB 'SWAPD', 00H			; `string'
CONST	ENDS
;	COMDAT ??_C@_05PEPKONKF@SWAPW@
CONST	SEGMENT
??_C@_05PEPKONKF@SWAPW@ DB 'SWAPW', 00H			; `string'
CONST	ENDS
;	COMDAT ??_C@_05MDEPALLB@SWAPB@
CONST	SEGMENT
??_C@_05MDEPALLB@SWAPB@ DB 'SWAPB', 00H			; `string'
CONST	ENDS
;	COMDAT ??_C@_04HFFIJJNL@LDIP@
CONST	SEGMENT
??_C@_04HFFIJJNL@LDIP@ DB 'LDIP', 00H			; `string'
CONST	ENDS
;	COMDAT ??_C@_04MHPBMOBH@STIP@
CONST	SEGMENT
??_C@_04MHPBMOBH@STIP@ DB 'STIP', 00H			; `string'
CONST	ENDS
;	COMDAT ??_C@_04GEOJLPHN@LDSP@
CONST	SEGMENT
??_C@_04GEOJLPHN@LDSP@ DB 'LDSP', 00H			; `string'
CONST	ENDS
;	COMDAT ??_C@_04NGEAOILB@STSP@
CONST	SEGMENT
??_C@_04NGEAOILB@STSP@ DB 'STSP', 00H			; `string'
CONST	ENDS
;	COMDAT ??_C@_06CFKEFNFF@EDITSP@
CONST	SEGMENT
??_C@_06CFKEFNFF@EDITSP@ DB 'EDITSP', 00H		; `string'
CONST	ENDS
;	COMDAT ??_C@_07EMAGKOAM@X86CALL@
CONST	SEGMENT
??_C@_07EMAGKOAM@X86CALL@ DB 'X86CALL', 00H		; `string'
CONST	ENDS
;	COMDAT ??_C@_03BHDJDALB@RET@
CONST	SEGMENT
??_C@_03BHDJDALB@RET@ DB 'RET', 00H			; `string'
CONST	ENDS
;	COMDAT ??_C@_04CAGKGBIO@CALL@
CONST	SEGMENT
??_C@_04CAGKGBIO@CALL@ DB 'CALL', 00H			; `string'
CONST	ENDS
;	COMDAT ??_C@_03BAECINKO@JNZ@
CONST	SEGMENT
??_C@_03BAECINKO@JNZ@ DB 'JNZ', 00H			; `string'
CONST	ENDS
;	COMDAT ??_C@_02DNOHJLCF@JZ@
CONST	SEGMENT
??_C@_02DNOHJLCF@JZ@ DB 'JZ', 00H			; `string'
CONST	ENDS
;	COMDAT ??_C@_03NCMJLILP@JGE@
CONST	SEGMENT
??_C@_03NCMJLILP@JGE@ DB 'JGE', 00H			; `string'
CONST	ENDS
;	COMDAT ??_C@_02MCILPHDJ@JG@
CONST	SEGMENT
??_C@_02MCILPHDJ@JG@ DB 'JG', 00H			; `string'
CONST	ENDS
;	COMDAT ??_C@_03NOJMFHFO@JLE@
CONST	SEGMENT
??_C@_03NOJMFHFO@JLE@ DB 'JLE', 00H			; `string'
CONST	ENDS
;	COMDAT ??_C@_02CBHPCOPC@JL@
CONST	SEGMENT
??_C@_02CBHPCOPC@JL@ DB 'JL', 00H			; `string'
CONST	ENDS
;	COMDAT ??_C@_04POHBCBG@JMPI@
CONST	SEGMENT
??_C@_04POHBCBG@JMPI@ DB 'JMPI', 00H			; `string'
CONST	ENDS
;	COMDAT ??_C@_03OIOLNLHN@JMP@
CONST	SEGMENT
??_C@_03OIOLNLHN@JMP@ DB 'JMP', 00H			; `string'
CONST	ENDS
;	COMDAT ??_C@_04IAOMOIDO@CMPQ@
CONST	SEGMENT
??_C@_04IAOMOIDO@CMPQ@ DB 'CMPQ', 00H			; `string'
CONST	ENDS
;	COMDAT ??_C@_04LHFJAOCK@CMPD@
CONST	SEGMENT
??_C@_04LHFJAOCK@CMPD@ DB 'CMPD', 00H			; `string'
CONST	ENDS
;	COMDAT ??_C@_04NGLGEPLI@CMPW@
CONST	SEGMENT
??_C@_04NGLGEPLI@CMPW@ DB 'CMPW', 00H			; `string'
CONST	ENDS
;	COMDAT ??_C@_04OBADKJKM@CMPB@
CONST	SEGMENT
??_C@_04OBADKJKM@CMPB@ DB 'CMPB', 00H			; `string'
CONST	ENDS
;	COMDAT ??_C@_04NEFGFLOA@SHRQ@
CONST	SEGMENT
??_C@_04NEFGFLOA@SHRQ@ DB 'SHRQ', 00H			; `string'
CONST	ENDS
;	COMDAT ??_C@_04ODODLNPE@SHRD@
CONST	SEGMENT
??_C@_04ODODLNPE@SHRD@ DB 'SHRD', 00H			; `string'
CONST	ENDS
;	COMDAT ??_C@_04ICAMPMGG@SHRW@
CONST	SEGMENT
??_C@_04ICAMPMGG@SHRW@ DB 'SHRW', 00H			; `string'
CONST	ENDS
;	COMDAT ??_C@_04LFLJBKHC@SHRB@
CONST	SEGMENT
??_C@_04LFLJBKHC@SHRB@ DB 'SHRB', 00H			; `string'
CONST	ENDS
;	COMDAT ??_C@_04MCOONFJK@SHLQ@
CONST	SEGMENT
??_C@_04MCOONFJK@SHLQ@ DB 'SHLQ', 00H			; `string'
CONST	ENDS
;	COMDAT ??_C@_04PFFLDDIO@SHLD@
CONST	SEGMENT
??_C@_04PFFLDDIO@SHLD@ DB 'SHLD', 00H			; `string'
CONST	ENDS
;	COMDAT ??_C@_04JELEHCBM@SHLW@
CONST	SEGMENT
??_C@_04JELEHCBM@SHLW@ DB 'SHLW', 00H			; `string'
CONST	ENDS
;	COMDAT ??_C@_04KDABJEAI@SHLB@
CONST	SEGMENT
??_C@_04KDABJEAI@SHLB@ DB 'SHLB', 00H			; `string'
CONST	ENDS
;	COMDAT ??_C@_04DOFBFCEI@XORQ@
CONST	SEGMENT
??_C@_04DOFBFCEI@XORQ@ DB 'XORQ', 00H			; `string'
CONST	ENDS
;	COMDAT ??_C@_04JOELEFM@XORD@
CONST	SEGMENT
??_C@_04JOELEFM@XORD@ DB 'XORD', 00H			; `string'
CONST	ENDS
;	COMDAT ??_C@_04GIALPFMO@XORW@
CONST	SEGMENT
??_C@_04GIALPFMO@XORW@ DB 'XORW', 00H			; `string'
CONST	ENDS
;	COMDAT ??_C@_04FPLOBDNK@XORB@
CONST	SEGMENT
??_C@_04FPLOBDNK@XORB@ DB 'XORB', 00H			; `string'
CONST	ENDS
;	COMDAT ??_C@_03NBFEPOED@ORQ@
CONST	SEGMENT
??_C@_03NBFEPOED@ORQ@ DB 'ORQ', 00H			; `string'
CONST	ENDS
;	COMDAT ??_C@_03OGOBBIFH@ORD@
CONST	SEGMENT
??_C@_03OGOBBIFH@ORD@ DB 'ORD', 00H			; `string'
CONST	ENDS
;	COMDAT ??_C@_03IHAOFJMF@ORW@
CONST	SEGMENT
??_C@_03IHAOFJMF@ORW@ DB 'ORW', 00H			; `string'
CONST	ENDS
;	COMDAT ??_C@_03LALLLPNB@ORB@
CONST	SEGMENT
??_C@_03LALLLPNB@ORB@ DB 'ORB', 00H			; `string'
CONST	ENDS
;	COMDAT ??_C@_04PDLGBPBM@ANDQ@
CONST	SEGMENT
??_C@_04PDLGBPBM@ANDQ@ DB 'ANDQ', 00H			; `string'
CONST	ENDS
;	COMDAT ??_C@_04MEADPJAI@ANDD@
CONST	SEGMENT
??_C@_04MEADPJAI@ANDD@ DB 'ANDD', 00H			; `string'
CONST	ENDS
;	COMDAT ??_C@_04KFOMLIJK@ANDW@
CONST	SEGMENT
??_C@_04KFOMLIJK@ANDW@ DB 'ANDW', 00H			; `string'
CONST	ENDS
;	COMDAT ??_C@_04JCFJFOIO@ANDB@
CONST	SEGMENT
??_C@_04JCFJFOIO@ANDB@ DB 'ANDB', 00H			; `string'
CONST	ENDS
;	COMDAT ??_C@_04LJCDNPML@DIVQ@
CONST	SEGMENT
??_C@_04LJCDNPML@DIVQ@ DB 'DIVQ', 00H			; `string'
CONST	ENDS
;	COMDAT ??_C@_04IOJGDJNP@DIVD@
CONST	SEGMENT
??_C@_04IOJGDJNP@DIVD@ DB 'DIVD', 00H			; `string'
CONST	ENDS
;	COMDAT ??_C@_04OPHJHIEN@DIVW@
CONST	SEGMENT
??_C@_04OPHJHIEN@DIVW@ DB 'DIVW', 00H			; `string'
CONST	ENDS
;	COMDAT ??_C@_04NIMMJOFJ@DIVB@
CONST	SEGMENT
??_C@_04NIMMJOFJ@DIVB@ DB 'DIVB', 00H			; `string'
CONST	ENDS
;	COMDAT ??_C@_04LPENHDDL@MULQ@
CONST	SEGMENT
??_C@_04LPENHDDL@MULQ@ DB 'MULQ', 00H			; `string'
CONST	ENDS
;	COMDAT ??_C@_04IIPIJFCP@MULD@
CONST	SEGMENT
??_C@_04IIPIJFCP@MULD@ DB 'MULD', 00H			; `string'
CONST	ENDS
;	COMDAT ??_C@_04OJBHNELN@MULW@
CONST	SEGMENT
??_C@_04OJBHNELN@MULW@ DB 'MULW', 00H			; `string'
CONST	ENDS
;	COMDAT ??_C@_04NOKCDCKJ@MULB@
CONST	SEGMENT
??_C@_04NOKCDCKJ@MULB@ DB 'MULB', 00H			; `string'
CONST	ENDS
;	COMDAT ??_C@_04GKADHHNC@SUBQ@
CONST	SEGMENT
??_C@_04GKADHHNC@SUBQ@ DB 'SUBQ', 00H			; `string'
CONST	ENDS
;	COMDAT ??_C@_04FNLGJBMG@SUBD@
CONST	SEGMENT
??_C@_04FNLGJBMG@SUBD@ DB 'SUBD', 00H			; `string'
CONST	ENDS
;	COMDAT ??_C@_04DMFJNAFE@SUBW@
CONST	SEGMENT
??_C@_04DMFJNAFE@SUBW@ DB 'SUBW', 00H			; `string'
CONST	ENDS
;	COMDAT ??_C@_04LOMDGEA@SUBB@
CONST	SEGMENT
??_C@_04LOMDGEA@SUBB@ DB 'SUBB', 00H			; `string'
CONST	ENDS
;	COMDAT ??_C@_04JMALPPHI@ADDQ@
CONST	SEGMENT
??_C@_04JMALPPHI@ADDQ@ DB 'ADDQ', 00H			; `string'
CONST	ENDS
;	COMDAT ??_C@_04KLLOBJGM@ADDD@
CONST	SEGMENT
??_C@_04KLLOBJGM@ADDD@ DB 'ADDD', 00H			; `string'
CONST	ENDS
;	COMDAT ??_C@_04MKFBFIPO@ADDW@
CONST	SEGMENT
??_C@_04MKFBFIPO@ADDW@ DB 'ADDW', 00H			; `string'
CONST	ENDS
;	COMDAT ??_C@_04PNOELOOK@ADDB@
CONST	SEGMENT
??_C@_04PNOELOOK@ADDB@ DB 'ADDB', 00H			; `string'
CONST	ENDS
;	COMDAT ??_C@_05EPBHPAEF@NPOPQ@
CONST	SEGMENT
??_C@_05EPBHPAEF@NPOPQ@ DB 'NPOPQ', 00H			; `string'
CONST	ENDS
;	COMDAT ??_C@_05HIKCBGFB@NPOPD@
CONST	SEGMENT
??_C@_05HIKCBGFB@NPOPD@ DB 'NPOPD', 00H			; `string'
CONST	ENDS
;	COMDAT ??_C@_05BJENFHMD@NPOPW@
CONST	SEGMENT
??_C@_05BJENFHMD@NPOPW@ DB 'NPOPW', 00H			; `string'
CONST	ENDS
;	COMDAT ??_C@_05COPILBNH@NPOPB@
CONST	SEGMENT
??_C@_05COPILBNH@NPOPB@ DB 'NPOPB', 00H			; `string'
CONST	ENDS
;	COMDAT ??_C@_04NKFMNOH@POPQ@
CONST	SEGMENT
??_C@_04NKFMNOH@POPQ@ DB 'POPQ', 00H			; `string'
CONST	ENDS
;	COMDAT ??_C@_04DKBACLPD@POPD@
CONST	SEGMENT
??_C@_04DKBACLPD@POPD@ DB 'POPD', 00H			; `string'
CONST	ENDS
;	COMDAT ??_C@_04FLPPGKGB@POPW@
CONST	SEGMENT
??_C@_04FLPPGKGB@POPW@ DB 'POPW', 00H			; `string'
CONST	ENDS
;	COMDAT ??_C@_04GMEKIMHF@POPB@
CONST	SEGMENT
??_C@_04GMEKIMHF@POPB@ DB 'POPB', 00H			; `string'
CONST	ENDS
;	COMDAT ??_C@_05LGNBAGDB@PUSHQ@
CONST	SEGMENT
??_C@_05LGNBAGDB@PUSHQ@ DB 'PUSHQ', 00H			; `string'
CONST	ENDS
;	COMDAT ??_C@_05IBGEOACF@PUSHD@
CONST	SEGMENT
??_C@_05IBGEOACF@PUSHD@ DB 'PUSHD', 00H			; `string'
CONST	ENDS
;	COMDAT ??_C@_05OAILKBLH@PUSHW@
CONST	SEGMENT
??_C@_05OAILKBLH@PUSHW@ DB 'PUSHW', 00H			; `string'
CONST	ENDS
;	COMDAT ??_C@_05NHDOEHKD@PUSHB@
CONST	SEGMENT
??_C@_05NHDOEHKD@PUSHB@ DB 'PUSHB', 00H			; `string'
CONST	ENDS
;	COMDAT ??_C@_04JBPELBMM@ZXDQ@
CONST	SEGMENT
??_C@_04JBPELBMM@ZXDQ@ DB 'ZXDQ', 00H			; `string'
CONST	ENDS
;	COMDAT ??_C@_04IPJEKMOF@ZXWQ@
CONST	SEGMENT
??_C@_04IPJEKMOF@ZXWQ@ DB 'ZXWQ', 00H			; `string'
CONST	ENDS
;	COMDAT ??_C@_04LICBEKPB@ZXWD@
CONST	SEGMENT
??_C@_04LICBEKPB@ZXWD@ DB 'ZXWD', 00H			; `string'
CONST	ENDS
;	COMDAT ??_C@_04JFHJMNHO@ZXBQ@
CONST	SEGMENT
??_C@_04JFHJMNHO@ZXBQ@ DB 'ZXBQ', 00H			; `string'
CONST	ENDS
;	COMDAT ??_C@_04KCMMCLGK@ZXBD@
CONST	SEGMENT
??_C@_04KCMMCLGK@ZXBD@ DB 'ZXBD', 00H			; `string'
CONST	ENDS
;	COMDAT ??_C@_04MDCDGKPI@ZXBW@
CONST	SEGMENT
??_C@_04MDCDGKPI@ZXBW@ DB 'ZXBW', 00H			; `string'
CONST	ENDS
;	COMDAT ??_C@_04JMOENDLN@SXDQ@
CONST	SEGMENT
??_C@_04JMOENDLN@SXDQ@ DB 'SXDQ', 00H			; `string'
CONST	ENDS
;	COMDAT ??_C@_04ICIEMOJE@SXWQ@
CONST	SEGMENT
??_C@_04ICIEMOJE@SXWQ@ DB 'SXWQ', 00H			; `string'
CONST	ENDS
;	COMDAT ??_C@_04LFDBCIIA@SXWD@
CONST	SEGMENT
??_C@_04LFDBCIIA@SXWD@ DB 'SXWD', 00H			; `string'
CONST	ENDS
;	COMDAT ??_C@_04JIGJKPAP@SXBQ@
CONST	SEGMENT
??_C@_04JIGJKPAP@SXBQ@ DB 'SXBQ', 00H			; `string'
CONST	ENDS
;	COMDAT ??_C@_04KPNMEJBL@SXBD@
CONST	SEGMENT
??_C@_04KPNMEJBL@SXBD@ DB 'SXBD', 00H			; `string'
CONST	ENDS
;	COMDAT ??_C@_04MODDAIIJ@SXBW@
CONST	SEGMENT
??_C@_04MODDAIIJ@SXBW@ DB 'SXBW', 00H			; `string'
CONST	ENDS
;	COMDAT ??_C@_04NAPJKOOO@STAQ@
CONST	SEGMENT
??_C@_04NAPJKOOO@STAQ@ DB 'STAQ', 00H			; `string'
CONST	ENDS
;	COMDAT ??_C@_04OHEMEIPK@STAD@
CONST	SEGMENT
??_C@_04OHEMEIPK@STAD@ DB 'STAD', 00H			; `string'
CONST	ENDS
;	COMDAT ??_C@_04IGKDAJGI@STAW@
CONST	SEGMENT
??_C@_04IGKDAJGI@STAW@ DB 'STAW', 00H			; `string'
CONST	ENDS
;	COMDAT ??_C@_04LBBGOPHM@STAB@
CONST	SEGMENT
??_C@_04LBBGOPHM@STAB@ DB 'STAB', 00H			; `string'
CONST	ENDS
;	COMDAT ??_C@_04GCFAPJCC@LDAQ@
CONST	SEGMENT
??_C@_04GCFAPJCC@LDAQ@ DB 'LDAQ', 00H			; `string'
CONST	ENDS
;	COMDAT ??_C@_04FFOFBPDG@LDAD@
CONST	SEGMENT
??_C@_04FFOFBPDG@LDAD@ DB 'LDAD', 00H			; `string'
CONST	ENDS
;	COMDAT ??_C@_04DEAKFOKE@LDAW@
CONST	SEGMENT
??_C@_04DEAKFOKE@LDAW@ DB 'LDAW', 00H			; `string'
CONST	ENDS
;	COMDAT ??_C@_04DLPLILA@LDAB@
CONST	SEGMENT
??_C@_04DLPLILA@LDAB@ DB 'LDAB', 00H			; `string'
CONST	ENDS
;	COMDAT ??_C@_07LEDAPPKI@LDIDZXQ@
CONST	SEGMENT
??_C@_07LEDAPPKI@LDIDZXQ@ DB 'LDIDZXQ', 00H		; `string'
CONST	ENDS
;	COMDAT ??_C@_07JDHABCPK@LDIWZXQ@
CONST	SEGMENT
??_C@_07JDHABCPK@LDIWZXQ@ DB 'LDIWZXQ', 00H		; `string'
CONST	ENDS
;	COMDAT ??_C@_07KEMFPEOO@LDIWZXD@
CONST	SEGMENT
??_C@_07KEMFPEOO@LDIWZXD@ DB 'LDIWZXD', 00H		; `string'
CONST	ENDS
;	COMDAT ??_C@_07DLHAAKAI@LDIBZXQ@
CONST	SEGMENT
??_C@_07DLHAAKAI@LDIBZXQ@ DB 'LDIBZXQ', 00H		; `string'
CONST	ENDS
;	COMDAT ??_C@_07MMFOMBM@LDIBZXD@
CONST	SEGMENT
??_C@_07MMFOMBM@LDIBZXD@ DB 'LDIBZXD', 00H		; `string'
CONST	ENDS
;	COMDAT ??_C@_07GNCKKNIO@LDIBZXW@
CONST	SEGMENT
??_C@_07GNCKKNIO@LDIBZXW@ DB 'LDIBZXW', 00H		; `string'
CONST	ENDS
;	COMDAT ??_C@_07MJDILACC@LDIDSXQ@
CONST	SEGMENT
??_C@_07MJDILACC@LDIDSXQ@ DB 'LDIDSXQ', 00H		; `string'
CONST	ENDS
;	COMDAT ??_C@_07OOHIFNHA@LDIWSXQ@
CONST	SEGMENT
??_C@_07OOHIFNHA@LDIWSXQ@ DB 'LDIWSXQ', 00H		; `string'
CONST	ENDS
;	COMDAT ??_C@_07NJMNLLGE@LDIWSXD@
CONST	SEGMENT
??_C@_07NJMNLLGE@LDIWSXD@ DB 'LDIWSXD', 00H		; `string'
CONST	ENDS
;	COMDAT ??_C@_07EGHIEFIC@LDIBSXQ@
CONST	SEGMENT
??_C@_07EGHIEFIC@LDIBSXQ@ DB 'LDIBSXQ', 00H		; `string'
CONST	ENDS
;	COMDAT ??_C@_07HBMNKDJG@LDIBSXD@
CONST	SEGMENT
??_C@_07HBMNKDJG@LDIBSXD@ DB 'LDIBSXD', 00H		; `string'
CONST	ENDS
;	COMDAT ??_C@_07BACCOCAE@LDIBSXW@
CONST	SEGMENT
??_C@_07BACCOCAE@LDIBSXW@ DB 'LDIBSXW', 00H		; `string'
CONST	ENDS
;	COMDAT ??_C@_04GMEDKIJK@LDIQ@
CONST	SEGMENT
??_C@_04GMEDKIJK@LDIQ@ DB 'LDIQ', 00H			; `string'
CONST	ENDS
;	COMDAT ??_C@_04FLPGEOIO@LDID@
CONST	SEGMENT
??_C@_04FLPGEOIO@LDID@ DB 'LDID', 00H			; `string'
CONST	ENDS
;	COMDAT ??_C@_04DKBJAPBM@LDIW@
CONST	SEGMENT
??_C@_04DKBJAPBM@LDIW@ DB 'LDIW', 00H			; `string'
CONST	ENDS
;	COMDAT ??_C@_04NKMOJAI@LDIB@
CONST	SEGMENT
??_C@_04NKMOJAI@LDIB@ DB 'LDIB', 00H			; `string'
CONST	ENDS
;	COMDAT ??_C@_03GEANJIEE@NOP@
CONST	SEGMENT
??_C@_03GEANJIEE@NOP@ DB 'NOP', 00H			; `string'
CONST	ENDS
;	COMDAT ??_C@_06KOGGDLNF@VMEXIT@
CONST	SEGMENT
??_C@_06KOGGDLNF@VMEXIT@ DB 'VMEXIT', 00H		; `string'
CONST	ENDS
;	COMDAT ??_C@_07COKNFLJB@VMENTER@
CONST	SEGMENT
??_C@_07COKNFLJB@VMENTER@ DB 'VMENTER', 00H		; `string'
CONST	ENDS
;	COMDAT ?InstructionBindings@@3PAPEBDA
_DATA	SEGMENT
?InstructionBindings@@3PAPEBDA DQ FLAT:??_C@_07COKNFLJB@VMENTER@ ; InstructionBindings
	DQ	FLAT:??_C@_06KOGGDLNF@VMEXIT@
	DQ	FLAT:??_C@_03GEANJIEE@NOP@
	DQ	FLAT:??_C@_04NKMOJAI@LDIB@
	DQ	FLAT:??_C@_04DKBJAPBM@LDIW@
	DQ	FLAT:??_C@_04FLPGEOIO@LDID@
	DQ	FLAT:??_C@_04GMEDKIJK@LDIQ@
	DQ	FLAT:??_C@_07BACCOCAE@LDIBSXW@
	DQ	FLAT:??_C@_07HBMNKDJG@LDIBSXD@
	DQ	FLAT:??_C@_07EGHIEFIC@LDIBSXQ@
	DQ	FLAT:??_C@_07NJMNLLGE@LDIWSXD@
	DQ	FLAT:??_C@_07OOHIFNHA@LDIWSXQ@
	DQ	FLAT:??_C@_07MJDILACC@LDIDSXQ@
	DQ	FLAT:??_C@_07GNCKKNIO@LDIBZXW@
	DQ	FLAT:??_C@_07MMFOMBM@LDIBZXD@
	DQ	FLAT:??_C@_07DLHAAKAI@LDIBZXQ@
	DQ	FLAT:??_C@_07KEMFPEOO@LDIWZXD@
	DQ	FLAT:??_C@_07JDHABCPK@LDIWZXQ@
	DQ	FLAT:??_C@_07LEDAPPKI@LDIDZXQ@
	DQ	FLAT:??_C@_04DLPLILA@LDAB@
	DQ	FLAT:??_C@_04DEAKFOKE@LDAW@
	DQ	FLAT:??_C@_04FFOFBPDG@LDAD@
	DQ	FLAT:??_C@_04GCFAPJCC@LDAQ@
	DQ	FLAT:??_C@_04LBBGOPHM@STAB@
	DQ	FLAT:??_C@_04IGKDAJGI@STAW@
	DQ	FLAT:??_C@_04OHEMEIPK@STAD@
	DQ	FLAT:??_C@_04NAPJKOOO@STAQ@
	DQ	FLAT:??_C@_04MODDAIIJ@SXBW@
	DQ	FLAT:??_C@_04KPNMEJBL@SXBD@
	DQ	FLAT:??_C@_04JIGJKPAP@SXBQ@
	DQ	FLAT:??_C@_04LFDBCIIA@SXWD@
	DQ	FLAT:??_C@_04ICIEMOJE@SXWQ@
	DQ	FLAT:??_C@_04JMOENDLN@SXDQ@
	DQ	FLAT:??_C@_04MDCDGKPI@ZXBW@
	DQ	FLAT:??_C@_04KCMMCLGK@ZXBD@
	DQ	FLAT:??_C@_04JFHJMNHO@ZXBQ@
	DQ	FLAT:??_C@_04LICBEKPB@ZXWD@
	DQ	FLAT:??_C@_04IPJEKMOF@ZXWQ@
	DQ	FLAT:??_C@_04JBPELBMM@ZXDQ@
	DQ	FLAT:??_C@_05NHDOEHKD@PUSHB@
	DQ	FLAT:??_C@_05OAILKBLH@PUSHW@
	DQ	FLAT:??_C@_05IBGEOACF@PUSHD@
	DQ	FLAT:??_C@_05LGNBAGDB@PUSHQ@
	DQ	FLAT:??_C@_04GMEKIMHF@POPB@
	DQ	FLAT:??_C@_04FLPPGKGB@POPW@
	DQ	FLAT:??_C@_04DKBACLPD@POPD@
	DQ	FLAT:??_C@_04NKFMNOH@POPQ@
	DQ	FLAT:??_C@_05COPILBNH@NPOPB@
	DQ	FLAT:??_C@_05BJENFHMD@NPOPW@
	DQ	FLAT:??_C@_05HIKCBGFB@NPOPD@
	DQ	FLAT:??_C@_05EPBHPAEF@NPOPQ@
	DQ	FLAT:??_C@_04PNOELOOK@ADDB@
	DQ	FLAT:??_C@_04MKFBFIPO@ADDW@
	DQ	FLAT:??_C@_04KLLOBJGM@ADDD@
	DQ	FLAT:??_C@_04JMALPPHI@ADDQ@
	DQ	FLAT:??_C@_04LOMDGEA@SUBB@
	DQ	FLAT:??_C@_04DMFJNAFE@SUBW@
	DQ	FLAT:??_C@_04FNLGJBMG@SUBD@
	DQ	FLAT:??_C@_04GKADHHNC@SUBQ@
	DQ	FLAT:??_C@_04NOKCDCKJ@MULB@
	DQ	FLAT:??_C@_04OJBHNELN@MULW@
	DQ	FLAT:??_C@_04IIPIJFCP@MULD@
	DQ	FLAT:??_C@_04LPENHDDL@MULQ@
	DQ	FLAT:??_C@_04NIMMJOFJ@DIVB@
	DQ	FLAT:??_C@_04OPHJHIEN@DIVW@
	DQ	FLAT:??_C@_04IOJGDJNP@DIVD@
	DQ	FLAT:??_C@_04LJCDNPML@DIVQ@
	DQ	FLAT:??_C@_04JCFJFOIO@ANDB@
	DQ	FLAT:??_C@_04KFOMLIJK@ANDW@
	DQ	FLAT:??_C@_04MEADPJAI@ANDD@
	DQ	FLAT:??_C@_04PDLGBPBM@ANDQ@
	DQ	FLAT:??_C@_03LALLLPNB@ORB@
	DQ	FLAT:??_C@_03IHAOFJMF@ORW@
	DQ	FLAT:??_C@_03OGOBBIFH@ORD@
	DQ	FLAT:??_C@_03NBFEPOED@ORQ@
	DQ	FLAT:??_C@_04FPLOBDNK@XORB@
	DQ	FLAT:??_C@_04GIALPFMO@XORW@
	DQ	FLAT:??_C@_04JOELEFM@XORD@
	DQ	FLAT:??_C@_04DOFBFCEI@XORQ@
	DQ	FLAT:??_C@_04KDABJEAI@SHLB@
	DQ	FLAT:??_C@_04JELEHCBM@SHLW@
	DQ	FLAT:??_C@_04PFFLDDIO@SHLD@
	DQ	FLAT:??_C@_04MCOONFJK@SHLQ@
	DQ	FLAT:??_C@_04LFLJBKHC@SHRB@
	DQ	FLAT:??_C@_04ICAMPMGG@SHRW@
	DQ	FLAT:??_C@_04ODODLNPE@SHRD@
	DQ	FLAT:??_C@_04NEFGFLOA@SHRQ@
	DQ	FLAT:??_C@_04OBADKJKM@CMPB@
	DQ	FLAT:??_C@_04NGLGEPLI@CMPW@
	DQ	FLAT:??_C@_04LHFJAOCK@CMPD@
	DQ	FLAT:??_C@_04IAOMOIDO@CMPQ@
	DQ	FLAT:??_C@_03OIOLNLHN@JMP@
	DQ	FLAT:??_C@_04POHBCBG@JMPI@
	DQ	FLAT:??_C@_02CBHPCOPC@JL@
	DQ	FLAT:??_C@_03NOJMFHFO@JLE@
	DQ	FLAT:??_C@_02MCILPHDJ@JG@
	DQ	FLAT:??_C@_03NCMJLILP@JGE@
	DQ	FLAT:??_C@_02DNOHJLCF@JZ@
	DQ	FLAT:??_C@_03BAECINKO@JNZ@
	DQ	FLAT:??_C@_04CAGKGBIO@CALL@
	DQ	FLAT:??_C@_03BHDJDALB@RET@
	DQ	FLAT:??_C@_07EMAGKOAM@X86CALL@
	DQ	FLAT:??_C@_06CFKEFNFF@EDITSP@
	DQ	FLAT:??_C@_04NGEAOILB@STSP@
	DQ	FLAT:??_C@_04GEOJLPHN@LDSP@
	DQ	FLAT:??_C@_04MHPBMOBH@STIP@
	DQ	FLAT:??_C@_04HFFIJJNL@LDIP@
	DQ	FLAT:??_C@_05MDEPALLB@SWAPB@
	DQ	FLAT:??_C@_05PEPKONKF@SWAPW@
	DQ	FLAT:??_C@_05JFBFKMDH@SWAPD@
	DQ	FLAT:??_C@_05KCKAEKCD@SWAPQ@
	DQ	FLAT:??_C@_04IIPHEAHK@DECB@
	DQ	FLAT:??_C@_04LPECKGGO@DECW@
	DQ	FLAT:??_C@_04NOKNOHPM@DECD@
	DQ	FLAT:??_C@_04OJBIABOI@DECQ@
	DQ	FLAT:??_C@_04KHGGADMK@INCB@
	DQ	FLAT:??_C@_04JANDOFNO@INCW@
	DQ	FLAT:??_C@_04PBDMKEEM@INCD@
	DQ	FLAT:??_C@_04MGIJECFI@INCQ@
	DQ	FLAT:??_C@_06BPAFKAAE@SWAPBQ@
	DQ	FLAT:??_C@_06FOIMBJP@SWAPWQ@
	DQ	FLAT:??_C@_06BLIINMLG@SWAPDQ@
	DQ	FLAT:??_C@_04BMBNMPKO@LDSB@
	DQ	FLAT:??_C@_04CLKICJLK@LDSW@
	DQ	FLAT:??_C@_04EKEHGICI@LDSD@
	DQ	FLAT:??_C@_04HNPCIODM@LDSQ@
	DQ	FLAT:??_C@_04KOLEJIGC@STSB@
	DQ	FLAT:??_C@_04JJABHOHG@STSW@
	DQ	FLAT:??_C@_04PIOODPOE@STSD@
	DQ	FLAT:??_C@_04MPFLNJPA@STSQ@
	DQ	FLAT:??_C@_05EDKPJED@LDBPB@
	DQ	FLAT:??_C@_05DDIPBPFH@LDBPW@
	DQ	FLAT:??_C@_05FCGAFOMF@LDBPD@
	DQ	FLAT:??_C@_05GFNFLINB@LDBPQ@
	DQ	FLAT:??_C@_05JGFKNOIP@STBPB@
	DQ	FLAT:??_C@_05KBOPDIJL@STBPW@
	DQ	FLAT:??_C@_05MAAAHJAJ@STBPD@
	DQ	FLAT:??_C@_05PHLFJPBN@STBPQ@
_DATA	ENDS
;	COMDAT _CT??_R0?AVbad_cast@std@@@8??0bad_cast@std@@QEAA@AEBV01@@Z24
xdata$x	SEGMENT
_CT??_R0?AVbad_cast@std@@@8??0bad_cast@std@@QEAA@AEBV01@@Z24 DD 00H
	DD	imagerel ??_R0?AVbad_cast@std@@@8
	DD	00H
	DD	0ffffffffH
	ORG $+4
	DD	018H
	DD	imagerel ??0bad_cast@std@@QEAA@AEBV01@@Z
xdata$x	ENDS
;	COMDAT ??_R0?AVbad_cast@std@@@8
data$r	SEGMENT
??_R0?AVbad_cast@std@@@8 DQ FLAT:??_7type_info@@6B@	; std::bad_cast `RTTI Type Descriptor'
	DQ	0000000000000000H
	DB	'.?AVbad_cast@std@@', 00H
data$r	ENDS
;	COMDAT _CTA2?AVbad_cast@std@@
xdata$x	SEGMENT
_CTA2?AVbad_cast@std@@ DD 02H
	DD	imagerel _CT??_R0?AVbad_cast@std@@@8??0bad_cast@std@@QEAA@AEBV01@@Z24
	DD	imagerel _CT??_R0?AVexception@std@@@8??0exception@std@@QEAA@AEBV01@@Z24
xdata$x	ENDS
;	COMDAT _TI2?AVbad_cast@std@@
xdata$x	SEGMENT
_TI2?AVbad_cast@std@@ DD 00H
	DD	imagerel ??1bad_cast@std@@UEAA@XZ
	DD	00H
	DD	imagerel _CTA2?AVbad_cast@std@@
xdata$x	ENDS
;	COMDAT ??_C@_08EPJLHIJG@bad?5cast@
CONST	SEGMENT
??_C@_08EPJLHIJG@bad?5cast@ DB 'bad cast', 00H		; `string'
CONST	ENDS
;	COMDAT ??_7bad_cast@std@@6B@
CONST	SEGMENT
??_7bad_cast@std@@6B@ DQ FLAT:??_R4bad_cast@std@@6B@	; std::bad_cast::`vftable'
	DQ	FLAT:??_Ebad_cast@std@@UEAAPEAXI@Z
	DQ	FLAT:?what@exception@std@@UEBAPEBDXZ
CONST	ENDS
;	COMDAT ??_C@_0BL@MFFNMGGC@stoi?5argument?5out?5of?5range@
CONST	SEGMENT
??_C@_0BL@MFFNMGGC@stoi?5argument?5out?5of?5range@ DB 'stoi argument out '
	DB	'of range', 00H				; `string'
CONST	ENDS
;	COMDAT ??_C@_0BG@HGEDEDEC@invalid?5stoi?5argument@
CONST	SEGMENT
??_C@_0BG@HGEDEDEC@invalid?5stoi?5argument@ DB 'invalid stoi argument', 00H ; `string'
CONST	ENDS
;	COMDAT ??_C@_0BA@JFNIOLAK@string?5too?5long@
CONST	SEGMENT
??_C@_0BA@JFNIOLAK@string?5too?5long@ DB 'string too long', 00H ; `string'
CONST	ENDS
;	COMDAT _CT??_R0?AVexception@std@@@8??0exception@std@@QEAA@AEBV01@@Z24
xdata$x	SEGMENT
_CT??_R0?AVexception@std@@@8??0exception@std@@QEAA@AEBV01@@Z24 DD 00H
	DD	imagerel ??_R0?AVexception@std@@@8
	DD	00H
	DD	0ffffffffH
	ORG $+4
	DD	018H
	DD	imagerel ??0exception@std@@QEAA@AEBV01@@Z
xdata$x	ENDS
;	COMDAT ??_R0?AVexception@std@@@8
data$r	SEGMENT
??_R0?AVexception@std@@@8 DQ FLAT:??_7type_info@@6B@	; std::exception `RTTI Type Descriptor'
	DQ	0000000000000000H
	DB	'.?AVexception@std@@', 00H
data$r	ENDS
;	COMDAT _CT??_R0?AVbad_alloc@std@@@8??0bad_alloc@std@@QEAA@AEBV01@@Z24
xdata$x	SEGMENT
_CT??_R0?AVbad_alloc@std@@@8??0bad_alloc@std@@QEAA@AEBV01@@Z24 DD 010H
	DD	imagerel ??_R0?AVbad_alloc@std@@@8
	DD	00H
	DD	0ffffffffH
	ORG $+4
	DD	018H
	DD	imagerel ??0bad_alloc@std@@QEAA@AEBV01@@Z
xdata$x	ENDS
;	COMDAT ??_R0?AVbad_alloc@std@@@8
data$r	SEGMENT
??_R0?AVbad_alloc@std@@@8 DQ FLAT:??_7type_info@@6B@	; std::bad_alloc `RTTI Type Descriptor'
	DQ	0000000000000000H
	DB	'.?AVbad_alloc@std@@', 00H
data$r	ENDS
;	COMDAT _CT??_R0?AVbad_array_new_length@std@@@8??0bad_array_new_length@std@@QEAA@AEBV01@@Z24
xdata$x	SEGMENT
_CT??_R0?AVbad_array_new_length@std@@@8??0bad_array_new_length@std@@QEAA@AEBV01@@Z24 DD 00H
	DD	imagerel ??_R0?AVbad_array_new_length@std@@@8
	DD	00H
	DD	0ffffffffH
	ORG $+4
	DD	018H
	DD	imagerel ??0bad_array_new_length@std@@QEAA@AEBV01@@Z
xdata$x	ENDS
;	COMDAT ??_R0?AVbad_array_new_length@std@@@8
data$r	SEGMENT
??_R0?AVbad_array_new_length@std@@@8 DQ FLAT:??_7type_info@@6B@ ; std::bad_array_new_length `RTTI Type Descriptor'
	DQ	0000000000000000H
	DB	'.?AVbad_array_new_length@std@@', 00H
data$r	ENDS
;	COMDAT _CTA3?AVbad_array_new_length@std@@
xdata$x	SEGMENT
_CTA3?AVbad_array_new_length@std@@ DD 03H
	DD	imagerel _CT??_R0?AVbad_array_new_length@std@@@8??0bad_array_new_length@std@@QEAA@AEBV01@@Z24
	DD	imagerel _CT??_R0?AVbad_alloc@std@@@8??0bad_alloc@std@@QEAA@AEBV01@@Z24
	DD	imagerel _CT??_R0?AVexception@std@@@8??0exception@std@@QEAA@AEBV01@@Z24
xdata$x	ENDS
;	COMDAT _TI3?AVbad_array_new_length@std@@
xdata$x	SEGMENT
_TI3?AVbad_array_new_length@std@@ DD 00H
	DD	imagerel ??1bad_array_new_length@std@@UEAA@XZ
	DD	00H
	DD	imagerel _CTA3?AVbad_array_new_length@std@@
xdata$x	ENDS
;	COMDAT ??_C@_0BF@KINCDENJ@bad?5array?5new?5length@
CONST	SEGMENT
??_C@_0BF@KINCDENJ@bad?5array?5new?5length@ DB 'bad array new length', 00H ; `string'
CONST	ENDS
;	COMDAT ??_7bad_array_new_length@std@@6B@
CONST	SEGMENT
??_7bad_array_new_length@std@@6B@ DQ FLAT:??_R4bad_array_new_length@std@@6B@ ; std::bad_array_new_length::`vftable'
	DQ	FLAT:??_Ebad_array_new_length@std@@UEAAPEAXI@Z
	DQ	FLAT:?what@exception@std@@UEBAPEBDXZ
CONST	ENDS
;	COMDAT ??_7bad_alloc@std@@6B@
CONST	SEGMENT
??_7bad_alloc@std@@6B@ DQ FLAT:??_R4bad_alloc@std@@6B@	; std::bad_alloc::`vftable'
	DQ	FLAT:??_Ebad_alloc@std@@UEAAPEAXI@Z
	DQ	FLAT:?what@exception@std@@UEBAPEBDXZ
CONST	ENDS
;	COMDAT ??_C@_0BC@EOODALEL@Unknown?5exception@
CONST	SEGMENT
??_C@_0BC@EOODALEL@Unknown?5exception@ DB 'Unknown exception', 00H ; `string'
CONST	ENDS
;	COMDAT ??_7exception@std@@6B@
CONST	SEGMENT
??_7exception@std@@6B@ DQ FLAT:??_R4exception@std@@6B@	; std::exception::`vftable'
	DQ	FLAT:??_Eexception@std@@UEAAPEAXI@Z
	DQ	FLAT:?what@exception@std@@UEBAPEBDXZ
CONST	ENDS
;	COMDAT xdata
xdata	SEGMENT
$unwind$??$_Copy_memmove@PEAEPEAE@std@@YAPEAEPEAE00@Z DD 040a01H
	DD	06340aH
	DD	07006320aH
xdata	ENDS
;	COMDAT xdata
xdata	SEGMENT
$unwind$??$_Copy_memmove@PEAPEAU_VM_INSTRUCTION@@PEAPEAU1@@std@@YAPEAPEAU_VM_INSTRUCTION@@PEAPEAU1@00@Z DD 040a01H
	DD	06340aH
	DD	07006320aH
xdata	ENDS
;	COMDAT xdata
xdata	SEGMENT
$unwind$??$_Copy_memmove@PEAU_VM_SYMBOL@@PEAU1@@std@@YAPEAU_VM_SYMBOL@@PEAU1@00@Z DD 040a01H
	DD	06340aH
	DD	07006320aH
xdata	ENDS
;	COMDAT xdata
xdata	SEGMENT
$ip2state$??1sentry@?$basic_istream@DU?$char_traits@D@std@@@std@@QEAA@XZ DB 02H
	DB	'6'
	DB	02H
xdata	ENDS
;	COMDAT xdata
xdata	SEGMENT
$stateUnwindMap$??1sentry@?$basic_istream@DU?$char_traits@D@std@@@std@@QEAA@XZ DB 02H
	DB	0eH
	DD	imagerel __std_terminate
xdata	ENDS
;	COMDAT xdata
xdata	SEGMENT
$cppxdata$??1sentry@?$basic_istream@DU?$char_traits@D@std@@@std@@QEAA@XZ DB 068H
	DD	imagerel $stateUnwindMap$??1sentry@?$basic_istream@DU?$char_traits@D@std@@@std@@QEAA@XZ
	DD	imagerel $ip2state$??1sentry@?$basic_istream@DU?$char_traits@D@std@@@std@@QEAA@XZ
xdata	ENDS
;	COMDAT xdata
xdata	SEGMENT
$unwind$??1sentry@?$basic_istream@DU?$char_traits@D@std@@@std@@QEAA@XZ DD 010419H
	DD	04204H
	DD	imagerel __CxxFrameHandler4
	DD	imagerel $cppxdata$??1sentry@?$basic_istream@DU?$char_traits@D@std@@@std@@QEAA@XZ
xdata	ENDS
;	COMDAT xdata
xdata	SEGMENT
$ip2state$??0sentry@?$basic_istream@DU?$char_traits@D@std@@@std@@QEAA@AEAV12@_N@Z DB 04H
	DB	'Z'
	DB	00H
	DB	016H
	DB	02H
xdata	ENDS
;	COMDAT xdata
xdata	SEGMENT
$stateUnwindMap$??0sentry@?$basic_istream@DU?$char_traits@D@std@@@std@@QEAA@AEAV12@_N@Z DB 02H
	DB	0cH
	DD	imagerel ??1_Sentry_base@?$basic_istream@DU?$char_traits@D@std@@@std@@QEAA@XZ
	DB	060H
xdata	ENDS
;	COMDAT xdata
xdata	SEGMENT
$cppxdata$??0sentry@?$basic_istream@DU?$char_traits@D@std@@@std@@QEAA@AEAV12@_N@Z DB 028H
	DD	imagerel $stateUnwindMap$??0sentry@?$basic_istream@DU?$char_traits@D@std@@@std@@QEAA@AEAV12@_N@Z
	DD	imagerel $ip2state$??0sentry@?$basic_istream@DU?$char_traits@D@std@@@std@@QEAA@AEAV12@_N@Z
xdata	ENDS
;	COMDAT xdata
xdata	SEGMENT
$unwind$??0sentry@?$basic_istream@DU?$char_traits@D@std@@@std@@QEAA@AEAV12@_N@Z DD 040f11H
	DD	07340fH
	DD	0700b320fH
	DD	imagerel __CxxFrameHandler4
	DD	imagerel $cppxdata$??0sentry@?$basic_istream@DU?$char_traits@D@std@@@std@@QEAA@AEAV12@_N@Z
xdata	ENDS
;	COMDAT xdata
xdata	SEGMENT
$ip2state$??1_Sentry_base@?$basic_istream@DU?$char_traits@D@std@@@std@@QEAA@XZ DB 02H
	DB	'6'
	DB	00H
xdata	ENDS
;	COMDAT xdata
xdata	SEGMENT
$cppxdata$??1_Sentry_base@?$basic_istream@DU?$char_traits@D@std@@@std@@QEAA@XZ DB 060H
	DD	imagerel $ip2state$??1_Sentry_base@?$basic_istream@DU?$char_traits@D@std@@@std@@QEAA@XZ
xdata	ENDS
;	COMDAT xdata
xdata	SEGMENT
$unwind$??1_Sentry_base@?$basic_istream@DU?$char_traits@D@std@@@std@@QEAA@XZ DD 010419H
	DD	04204H
	DD	imagerel __CxxFrameHandler4
	DD	imagerel $cppxdata$??1_Sentry_base@?$basic_istream@DU?$char_traits@D@std@@@std@@QEAA@XZ
xdata	ENDS
;	COMDAT xdata
xdata	SEGMENT
$unwind$??0_Sentry_base@?$basic_istream@DU?$char_traits@D@std@@@std@@QEAA@AEAV12@@Z DD 020601H
	DD	030023206H
xdata	ENDS
;	COMDAT xdata
xdata	SEGMENT
$unwind$??$_Traits_equal@U?$char_traits@D@std@@@std@@YA_NQEBD_K01@Z DD 010401H
	DD	04204H
xdata	ENDS
;	COMDAT xdata
xdata	SEGMENT
$unwind$??$_Uninitialized_move@PEAEV?$allocator@E@std@@@std@@YAPEAEQEAE0PEAEAEAV?$allocator@E@0@@Z DD 040801H
	DD	070043208H
	DD	030026003H
xdata	ENDS
;	COMDAT xdata
xdata	SEGMENT
$unwind$??$_Get_size_of_n@$07@std@@YA_K_K@Z DD 010401H
	DD	04204H
xdata	ENDS
;	COMDAT xdata
xdata	SEGMENT
$unwind$??$_Uninitialized_move@PEAPEAU_VM_INSTRUCTION@@V?$allocator@PEAU_VM_INSTRUCTION@@@std@@@std@@YAPEAPEAU_VM_INSTRUCTION@@QEAPEAU1@0PEAPEAU1@AEAV?$allocator@PEAU_VM_INSTRUCTION@@@0@@Z DD 040a01H
	DD	09340aH
	DD	07006320aH
xdata	ENDS
;	COMDAT xdata
xdata	SEGMENT
$unwind$??$_Get_size_of_n@$0CA@@std@@YA_K_K@Z DD 010401H
	DD	04204H
xdata	ENDS
;	COMDAT xdata
xdata	SEGMENT
$unwind$??$_Get_size_of_n@$0CE@@std@@YA_K_K@Z DD 010401H
	DD	04204H
xdata	ENDS
;	COMDAT xdata
xdata	SEGMENT
$unwind$??$_Uninitialized_move@PEAU_VM_SYMBOL@@V?$allocator@U_VM_SYMBOL@@@std@@@std@@YAPEAU_VM_SYMBOL@@QEAU1@0PEAU1@AEAV?$allocator@U_VM_SYMBOL@@@0@@Z DD 040a01H
	DD	09340aH
	DD	07006320aH
xdata	ENDS
;	COMDAT xdata
xdata	SEGMENT
$unwind$??$_Allocate_manually_vector_aligned@U_Default_allocate_traits@std@@@std@@YAPEAX_K@Z DD 010401H
	DD	04204H
xdata	ENDS
;	COMDAT xdata
xdata	SEGMENT
$unwind$??$destroy@V?$basic_string@DU?$char_traits@D@std@@V?$allocator@D@2@@std@@@?$_Default_allocator_traits@V?$allocator@V?$basic_string@DU?$char_traits@D@std@@V?$allocator@D@2@@std@@@std@@@std@@SAXAEAV?$allocator@V?$basic_string@DU?$char_traits@D@std@@V?$allocator@D@2@@std@@@1@QEAV?$basic_string@DU?$char_traits@D@std@@V?$allocator@D@2@@1@@Z DD 020601H
	DD	030023206H
xdata	ENDS
;	COMDAT xdata
xdata	SEGMENT
$chain$8$??$_Random_shuffle1@V?$_Vector_iterator@V?$_Vector_val@U?$_Simple_types@PEAU_VM_INSTRUCTION@@@std@@@std@@@std@@V?$_Rng_from_urng@_JV?$mersenne_twister_engine@I$0CA@$0CHA@$0BIN@$0BP@$0JJAILANP@$0L@$0PPPPPPPP@$06$0JNCMFGIA@$0P@$0OPMGAAAA@$0BC@$0GMAHIJGF@@std@@@2@@std@@YAXV?$_Vector_iterator@V?$_Vector_val@U?$_Simple_types@PEAU_VM_INSTRUCTION@@@std@@@std@@@0@0AEAV?$_Rng_from_urng@_JV?$mersenne_twister_engine@I$0CA@$0CHA@$0BIN@$0BP@$0JJAILANP@$0L@$0PPPPPPPP@$06$0JNCMFGIA@$0P@$0OPMGAAAA@$0BC@$0GMAHIJGF@@std@@@0@@Z DD 021H
	DD	imagerel $LN78
	DD	imagerel $LN78+22
	DD	imagerel $unwind$??$_Random_shuffle1@V?$_Vector_iterator@V?$_Vector_val@U?$_Simple_types@PEAU_VM_INSTRUCTION@@@std@@@std@@@std@@V?$_Rng_from_urng@_JV?$mersenne_twister_engine@I$0CA@$0CHA@$0BIN@$0BP@$0JJAILANP@$0L@$0PPPPPPPP@$06$0JNCMFGIA@$0P@$0OPMGAAAA@$0BC@$0GMAHIJGF@@std@@@2@@std@@YAXV?$_Vector_iterator@V?$_Vector_val@U?$_Simple_types@PEAU_VM_INSTRUCTION@@@std@@@std@@@0@0AEAV?$_Rng_from_urng@_JV?$mersenne_twister_engine@I$0CA@$0CHA@$0BIN@$0BP@$0JJAILANP@$0L@$0PPPPPPPP@$06$0JNCMFGIA@$0P@$0OPMGAAAA@$0BC@$0GMAHIJGF@@std@@@0@@Z
xdata	ENDS
;	COMDAT xdata
xdata	SEGMENT
$chain$7$??$_Random_shuffle1@V?$_Vector_iterator@V?$_Vector_val@U?$_Simple_types@PEAU_VM_INSTRUCTION@@@std@@@std@@@std@@V?$_Rng_from_urng@_JV?$mersenne_twister_engine@I$0CA@$0CHA@$0BIN@$0BP@$0JJAILANP@$0L@$0PPPPPPPP@$06$0JNCMFGIA@$0P@$0OPMGAAAA@$0BC@$0GMAHIJGF@@std@@@2@@std@@YAXV?$_Vector_iterator@V?$_Vector_val@U?$_Simple_types@PEAU_VM_INSTRUCTION@@@std@@@std@@@0@0AEAV?$_Rng_from_urng@_JV?$mersenne_twister_engine@I$0CA@$0CHA@$0BIN@$0BP@$0JJAILANP@$0L@$0PPPPPPPP@$06$0JNCMFGIA@$0P@$0OPMGAAAA@$0BC@$0GMAHIJGF@@std@@@0@@Z DD 021H
	DD	imagerel $LN78+22
	DD	imagerel $LN78+54
	DD	imagerel $chain$0$??$_Random_shuffle1@V?$_Vector_iterator@V?$_Vector_val@U?$_Simple_types@PEAU_VM_INSTRUCTION@@@std@@@std@@@std@@V?$_Rng_from_urng@_JV?$mersenne_twister_engine@I$0CA@$0CHA@$0BIN@$0BP@$0JJAILANP@$0L@$0PPPPPPPP@$06$0JNCMFGIA@$0P@$0OPMGAAAA@$0BC@$0GMAHIJGF@@std@@@2@@std@@YAXV?$_Vector_iterator@V?$_Vector_val@U?$_Simple_types@PEAU_VM_INSTRUCTION@@@std@@@std@@@0@0AEAV?$_Rng_from_urng@_JV?$mersenne_twister_engine@I$0CA@$0CHA@$0BIN@$0BP@$0JJAILANP@$0L@$0PPPPPPPP@$06$0JNCMFGIA@$0P@$0OPMGAAAA@$0BC@$0GMAHIJGF@@std@@@0@@Z
xdata	ENDS
;	COMDAT xdata
xdata	SEGMENT
$chain$6$??$_Random_shuffle1@V?$_Vector_iterator@V?$_Vector_val@U?$_Simple_types@PEAU_VM_INSTRUCTION@@@std@@@std@@@std@@V?$_Rng_from_urng@_JV?$mersenne_twister_engine@I$0CA@$0CHA@$0BIN@$0BP@$0JJAILANP@$0L@$0PPPPPPPP@$06$0JNCMFGIA@$0P@$0OPMGAAAA@$0BC@$0GMAHIJGF@@std@@@2@@std@@YAXV?$_Vector_iterator@V?$_Vector_val@U?$_Simple_types@PEAU_VM_INSTRUCTION@@@std@@@std@@@0@0AEAV?$_Rng_from_urng@_JV?$mersenne_twister_engine@I$0CA@$0CHA@$0BIN@$0BP@$0JJAILANP@$0L@$0PPPPPPPP@$06$0JNCMFGIA@$0P@$0OPMGAAAA@$0BC@$0GMAHIJGF@@std@@@0@@Z DD 0c1821H
	DD	02f418H
	DD	04c414H
	DD	057410H
	DD	0b640cH
	DD	095408H
	DD	083404H
	DD	imagerel $LN78+22
	DD	imagerel $LN78+54
	DD	imagerel $chain$0$??$_Random_shuffle1@V?$_Vector_iterator@V?$_Vector_val@U?$_Simple_types@PEAU_VM_INSTRUCTION@@@std@@@std@@@std@@V?$_Rng_from_urng@_JV?$mersenne_twister_engine@I$0CA@$0CHA@$0BIN@$0BP@$0JJAILANP@$0L@$0PPPPPPPP@$06$0JNCMFGIA@$0P@$0OPMGAAAA@$0BC@$0GMAHIJGF@@std@@@2@@std@@YAXV?$_Vector_iterator@V?$_Vector_val@U?$_Simple_types@PEAU_VM_INSTRUCTION@@@std@@@std@@@0@0AEAV?$_Rng_from_urng@_JV?$mersenne_twister_engine@I$0CA@$0CHA@$0BIN@$0BP@$0JJAILANP@$0L@$0PPPPPPPP@$06$0JNCMFGIA@$0P@$0OPMGAAAA@$0BC@$0GMAHIJGF@@std@@@0@@Z
xdata	ENDS
;	COMDAT xdata
xdata	SEGMENT
$chain$0$??$_Random_shuffle1@V?$_Vector_iterator@V?$_Vector_val@U?$_Simple_types@PEAU_VM_INSTRUCTION@@@std@@@std@@@std@@V?$_Rng_from_urng@_JV?$mersenne_twister_engine@I$0CA@$0CHA@$0BIN@$0BP@$0JJAILANP@$0L@$0PPPPPPPP@$06$0JNCMFGIA@$0P@$0OPMGAAAA@$0BC@$0GMAHIJGF@@std@@@2@@std@@YAXV?$_Vector_iterator@V?$_Vector_val@U?$_Simple_types@PEAU_VM_INSTRUCTION@@@std@@@std@@@0@0AEAV?$_Rng_from_urng@_JV?$mersenne_twister_engine@I$0CA@$0CHA@$0BIN@$0BP@$0JJAILANP@$0L@$0PPPPPPPP@$06$0JNCMFGIA@$0P@$0OPMGAAAA@$0BC@$0GMAHIJGF@@std@@@0@@Z DD 020421H
	DD	03d404H
	DD	imagerel $LN78
	DD	imagerel $LN78+22
	DD	imagerel $unwind$??$_Random_shuffle1@V?$_Vector_iterator@V?$_Vector_val@U?$_Simple_types@PEAU_VM_INSTRUCTION@@@std@@@std@@@std@@V?$_Rng_from_urng@_JV?$mersenne_twister_engine@I$0CA@$0CHA@$0BIN@$0BP@$0JJAILANP@$0L@$0PPPPPPPP@$06$0JNCMFGIA@$0P@$0OPMGAAAA@$0BC@$0GMAHIJGF@@std@@@2@@std@@YAXV?$_Vector_iterator@V?$_Vector_val@U?$_Simple_types@PEAU_VM_INSTRUCTION@@@std@@@std@@@0@0AEAV?$_Rng_from_urng@_JV?$mersenne_twister_engine@I$0CA@$0CHA@$0BIN@$0BP@$0JJAILANP@$0L@$0PPPPPPPP@$06$0JNCMFGIA@$0P@$0OPMGAAAA@$0BC@$0GMAHIJGF@@std@@@0@@Z
xdata	ENDS
;	COMDAT xdata
xdata	SEGMENT
$unwind$??$_Random_shuffle1@V?$_Vector_iterator@V?$_Vector_val@U?$_Simple_types@PEAU_VM_INSTRUCTION@@@std@@@std@@@std@@V?$_Rng_from_urng@_JV?$mersenne_twister_engine@I$0CA@$0CHA@$0BIN@$0BP@$0JJAILANP@$0L@$0PPPPPPPP@$06$0JNCMFGIA@$0P@$0OPMGAAAA@$0BC@$0GMAHIJGF@@std@@@2@@std@@YAXV?$_Vector_iterator@V?$_Vector_val@U?$_Simple_types@PEAU_VM_INSTRUCTION@@@std@@@std@@@0@0AEAV?$_Rng_from_urng@_JV?$mersenne_twister_engine@I$0CA@$0CHA@$0BIN@$0BP@$0JJAILANP@$0L@$0PPPPPPPP@$06$0JNCMFGIA@$0P@$0OPMGAAAA@$0BC@$0GMAHIJGF@@std@@@0@@Z DD 021201H
	DD	0e00e5212H
xdata	ENDS
;	COMDAT xdata
xdata	SEGMENT
$unwind$?_Get_bits@?$_Rng_from_urng@_JV?$mersenne_twister_engine@I$0CA@$0CHA@$0BIN@$0BP@$0JJAILANP@$0L@$0PPPPPPPP@$06$0JNCMFGIA@$0P@$0OPMGAAAA@$0BC@$0GMAHIJGF@@std@@@std@@AEAA_KXZ DD 060f01H
	DD	03740fH
	DD	02640aH
	DD	013405H
xdata	ENDS
;	COMDAT xdata
xdata	SEGMENT
$unwind$??R?$_Rng_from_urng@_JV?$mersenne_twister_engine@I$0CA@$0CHA@$0BIN@$0BP@$0JJAILANP@$0L@$0PPPPPPPP@$06$0JNCMFGIA@$0P@$0OPMGAAAA@$0BC@$0GMAHIJGF@@std@@@std@@QEAA_J_J@Z DD 0b1a01H
	DD	07741aH
	DD	06641aH
	DD	05541aH
	DD	04341aH
	DD	0e018f01aH
	DD	0c016H
xdata	ENDS
;	COMDAT xdata
xdata	SEGMENT
$unwind$?catch$4@?0???$getline@DU?$char_traits@D@std@@V?$allocator@D@2@@std@@YAAEAV?$basic_istream@DU?$char_traits@D@std@@@0@$$QEAV10@AEAV?$basic_string@DU?$char_traits@D@std@@V?$allocator@D@2@@0@D@Z@4HA DD 020a01H
	DD	05006320aH
xdata	ENDS
;	COMDAT xdata
xdata	SEGMENT
$ip2state$??$getline@DU?$char_traits@D@std@@V?$allocator@D@2@@std@@YAAEAV?$basic_istream@DU?$char_traits@D@std@@@0@$$QEAV10@AEAV?$basic_string@DU?$char_traits@D@std@@V?$allocator@D@2@@0@D@Z DB 010H
	DB	0a0H
	DB	00H
	DB	012H
	DB	02H
	DB	'd'
	DB	06H
	DB	0a4H
	DB	04H
	DB	'n'
	DB	06H
	DB	'L'
	DB	04H
	DB	'd'
	DB	0aH
	DB	'2'
	DB	00H
xdata	ENDS
;	COMDAT xdata
xdata	SEGMENT
$handlerMap$??$getline@DU?$char_traits@D@std@@V?$allocator@D@2@@std@@YAAEAV?$basic_istream@DU?$char_traits@D@std@@@0@$$QEAV10@AEAV?$basic_string@DU?$char_traits@D@std@@V?$allocator@D@2@@0@D@Z DB 02H
	DB	011H
	DB	080H
	DD	imagerel ?catch$4@?0???$getline@DU?$char_traits@D@std@@V?$allocator@D@2@@std@@YAAEAV?$basic_istream@DU?$char_traits@D@std@@@0@$$QEAV10@AEAV?$basic_string@DU?$char_traits@D@std@@V?$allocator@D@2@@0@D@Z@4HA
	DB	0e9H, 04H
xdata	ENDS
;	COMDAT xdata
xdata	SEGMENT
$tryMap$??$getline@DU?$char_traits@D@std@@V?$allocator@D@2@@std@@YAAEAV?$basic_istream@DU?$char_traits@D@std@@@0@$$QEAV10@AEAV?$basic_string@DU?$char_traits@D@std@@V?$allocator@D@2@@0@D@Z DB 02H
	DB	04H
	DB	04H
	DB	06H
	DD	imagerel $handlerMap$??$getline@DU?$char_traits@D@std@@V?$allocator@D@2@@std@@YAAEAV?$basic_istream@DU?$char_traits@D@std@@@0@$$QEAV10@AEAV?$basic_string@DU?$char_traits@D@std@@V?$allocator@D@2@@0@D@Z
xdata	ENDS
;	COMDAT xdata
xdata	SEGMENT
$stateUnwindMap$??$getline@DU?$char_traits@D@std@@V?$allocator@D@2@@std@@YAAEAV?$basic_istream@DU?$char_traits@D@std@@@0@$$QEAV10@AEAV?$basic_string@DU?$char_traits@D@std@@V?$allocator@D@2@@0@D@Z DB 0aH
	DB	0aH
	DD	imagerel ??1_Sentry_base@?$basic_istream@DU?$char_traits@D@std@@@std@@QEAA@XZ
	DB	060H
	DB	03aH
	DD	imagerel ??1sentry@?$basic_istream@DU?$char_traits@D@std@@@std@@QEAA@XZ
	DB	060H
	DB	030H
	DB	038H
	DB	07eH
	DD	imagerel __std_terminate
xdata	ENDS
;	COMDAT xdata
xdata	SEGMENT
$cppxdata$??$getline@DU?$char_traits@D@std@@V?$allocator@D@2@@std@@YAAEAV?$basic_istream@DU?$char_traits@D@std@@@0@$$QEAV10@AEAV?$basic_string@DU?$char_traits@D@std@@V?$allocator@D@2@@0@D@Z DB 038H
	DD	imagerel $stateUnwindMap$??$getline@DU?$char_traits@D@std@@V?$allocator@D@2@@std@@YAAEAV?$basic_istream@DU?$char_traits@D@std@@@0@$$QEAV10@AEAV?$basic_string@DU?$char_traits@D@std@@V?$allocator@D@2@@0@D@Z
	DD	imagerel $tryMap$??$getline@DU?$char_traits@D@std@@V?$allocator@D@2@@std@@YAAEAV?$basic_istream@DU?$char_traits@D@std@@@0@$$QEAV10@AEAV?$basic_string@DU?$char_traits@D@std@@V?$allocator@D@2@@0@D@Z
	DD	imagerel $ip2state$??$getline@DU?$char_traits@D@std@@V?$allocator@D@2@@std@@YAAEAV?$basic_istream@DU?$char_traits@D@std@@@0@$$QEAV10@AEAV?$basic_string@DU?$char_traits@D@std@@V?$allocator@D@2@@0@D@Z
xdata	ENDS
;	COMDAT xdata
xdata	SEGMENT
$unwind$??$getline@DU?$char_traits@D@std@@V?$allocator@D@2@@std@@YAAEAV?$basic_istream@DU?$char_traits@D@std@@@0@$$QEAV10@AEAV?$basic_string@DU?$char_traits@D@std@@V?$allocator@D@2@@0@D@Z DD 0a1719H
	DD	0116417H
	DD	0103417H
	DD	0f0137217H
	DD	0d00fe011H
	DD	0700bc00dH
	DD	imagerel __CxxFrameHandler4
	DD	imagerel $cppxdata$??$getline@DU?$char_traits@D@std@@V?$allocator@D@2@@std@@YAAEAV?$basic_istream@DU?$char_traits@D@std@@@0@$$QEAV10@AEAV?$basic_string@DU?$char_traits@D@std@@V?$allocator@D@2@@0@D@Z
xdata	ENDS
;	COMDAT xdata
xdata	SEGMENT
$unwind$??$_Allocate@$0BA@U_Default_allocate_traits@std@@$0A@@std@@YAPEAX_K@Z DD 010401H
	DD	04204H
xdata	ENDS
;	COMDAT xdata
xdata	SEGMENT
$chain$2$??$_Destroy_range@V?$allocator@V?$basic_string@DU?$char_traits@D@std@@V?$allocator@D@2@@std@@@std@@@std@@YAXPEAV?$basic_string@DU?$char_traits@D@std@@V?$allocator@D@2@@0@QEAV10@AEAV?$allocator@V?$basic_string@DU?$char_traits@D@std@@V?$allocator@D@2@@std@@@0@@Z DD 020021H
	DD	076400H
	DD	imagerel $LN51
	DD	imagerel $LN51+15
	DD	imagerel $unwind$??$_Destroy_range@V?$allocator@V?$basic_string@DU?$char_traits@D@std@@V?$allocator@D@2@@std@@@std@@@std@@YAXPEAV?$basic_string@DU?$char_traits@D@std@@V?$allocator@D@2@@0@QEAV10@AEAV?$allocator@V?$basic_string@DU?$char_traits@D@std@@V?$allocator@D@2@@std@@@0@@Z
xdata	ENDS
;	COMDAT xdata
xdata	SEGMENT
$chain$1$??$_Destroy_range@V?$allocator@V?$basic_string@DU?$char_traits@D@std@@V?$allocator@D@2@@std@@@std@@@std@@YAXPEAV?$basic_string@DU?$char_traits@D@std@@V?$allocator@D@2@@0@QEAV10@AEAV?$allocator@V?$basic_string@DU?$char_traits@D@std@@V?$allocator@D@2@@std@@@0@@Z DD 021H
	DD	imagerel $LN51
	DD	imagerel $LN51+15
	DD	imagerel $unwind$??$_Destroy_range@V?$allocator@V?$basic_string@DU?$char_traits@D@std@@V?$allocator@D@2@@std@@@std@@@std@@YAXPEAV?$basic_string@DU?$char_traits@D@std@@V?$allocator@D@2@@0@QEAV10@AEAV?$allocator@V?$basic_string@DU?$char_traits@D@std@@V?$allocator@D@2@@std@@@0@@Z
xdata	ENDS
;	COMDAT xdata
xdata	SEGMENT
$chain$0$??$_Destroy_range@V?$allocator@V?$basic_string@DU?$char_traits@D@std@@V?$allocator@D@2@@std@@@std@@@std@@YAXPEAV?$basic_string@DU?$char_traits@D@std@@V?$allocator@D@2@@0@QEAV10@AEAV?$allocator@V?$basic_string@DU?$char_traits@D@std@@V?$allocator@D@2@@std@@@0@@Z DD 020521H
	DD	076405H
	DD	imagerel $LN51
	DD	imagerel $LN51+15
	DD	imagerel $unwind$??$_Destroy_range@V?$allocator@V?$basic_string@DU?$char_traits@D@std@@V?$allocator@D@2@@std@@@std@@@std@@YAXPEAV?$basic_string@DU?$char_traits@D@std@@V?$allocator@D@2@@0@QEAV10@AEAV?$allocator@V?$basic_string@DU?$char_traits@D@std@@V?$allocator@D@2@@std@@@0@@Z
xdata	ENDS
;	COMDAT xdata
xdata	SEGMENT
$unwind$??$_Destroy_range@V?$allocator@V?$basic_string@DU?$char_traits@D@std@@V?$allocator@D@2@@std@@@std@@@std@@YAXPEAV?$basic_string@DU?$char_traits@D@std@@V?$allocator@D@2@@0@QEAV10@AEAV?$allocator@V?$basic_string@DU?$char_traits@D@std@@V?$allocator@D@2@@std@@@0@@Z DD 040f01H
	DD	08340fH
	DD	0700b320fH
xdata	ENDS
;	COMDAT xdata
xdata	SEGMENT
$unwind$??$_Deallocate@$0BA@$0A@@std@@YAXPEAX_K@Z DD 010401H
	DD	04204H
xdata	ENDS
;	COMDAT xdata
xdata	SEGMENT
$chain$4$??$_Reallocate_for@V<lambda_66f57f934f28d61049862f64df852ff0>@@PEBD@?$basic_string@DU?$char_traits@D@std@@V?$allocator@D@2@@std@@AEAAAEAV01@_KV<lambda_66f57f934f28d61049862f64df852ff0>@@PEBD@Z DD 021H
	DD	imagerel $LN66
	DD	imagerel $LN66+39
	DD	imagerel $unwind$??$_Reallocate_for@V<lambda_66f57f934f28d61049862f64df852ff0>@@PEBD@?$basic_string@DU?$char_traits@D@std@@V?$allocator@D@2@@std@@AEAAAEAV01@_KV<lambda_66f57f934f28d61049862f64df852ff0>@@PEBD@Z
xdata	ENDS
;	COMDAT xdata
xdata	SEGMENT
$chain$3$??$_Reallocate_for@V<lambda_66f57f934f28d61049862f64df852ff0>@@PEBD@?$basic_string@DU?$char_traits@D@std@@V?$allocator@D@2@@std@@AEAAAEAV01@_KV<lambda_66f57f934f28d61049862f64df852ff0>@@PEBD@Z DD 040021H
	DD	045400H
	DD	0c3400H
	DD	imagerel $LN66
	DD	imagerel $LN66+39
	DD	imagerel $unwind$??$_Reallocate_for@V<lambda_66f57f934f28d61049862f64df852ff0>@@PEBD@?$basic_string@DU?$char_traits@D@std@@V?$allocator@D@2@@std@@AEAAAEAV01@_KV<lambda_66f57f934f28d61049862f64df852ff0>@@PEBD@Z
xdata	ENDS
;	COMDAT xdata
xdata	SEGMENT
$chain$1$??$_Reallocate_for@V<lambda_66f57f934f28d61049862f64df852ff0>@@PEBD@?$basic_string@DU?$char_traits@D@std@@V?$allocator@D@2@@std@@AEAAAEAV01@_KV<lambda_66f57f934f28d61049862f64df852ff0>@@PEBD@Z DD 043c21H
	DD	0c343cH
	DD	045405H
	DD	imagerel $LN66
	DD	imagerel $LN66+39
	DD	imagerel $unwind$??$_Reallocate_for@V<lambda_66f57f934f28d61049862f64df852ff0>@@PEBD@?$basic_string@DU?$char_traits@D@std@@V?$allocator@D@2@@std@@AEAAAEAV01@_KV<lambda_66f57f934f28d61049862f64df852ff0>@@PEBD@Z
xdata	ENDS
;	COMDAT xdata
xdata	SEGMENT
$unwind$??$_Reallocate_for@V<lambda_66f57f934f28d61049862f64df852ff0>@@PEBD@?$basic_string@DU?$char_traits@D@std@@V?$allocator@D@2@@std@@AEAAAEAV01@_KV<lambda_66f57f934f28d61049862f64df852ff0>@@PEBD@Z DD 050b01H
	DD	0f007420bH
	DD	07003e005H
	DD	06002H
xdata	ENDS
;	COMDAT xdata
xdata	SEGMENT
$unwind$??R<lambda_66f57f934f28d61049862f64df852ff0>@@QEBAXQEAD_KQEBD@Z DD 040a01H
	DD	06340aH
	DD	07006320aH
xdata	ENDS
;	COMDAT xdata
xdata	SEGMENT
$chain$5$??$_Reallocate_grow_by@V<lambda_319d5e083f45f90dcdce5dce53cbb275>@@D@?$basic_string@DU?$char_traits@D@std@@V?$allocator@D@2@@std@@AEAAAEAV01@_KV<lambda_319d5e083f45f90dcdce5dce53cbb275>@@D@Z DD 021H
	DD	imagerel $LN71
	DD	imagerel $LN71+46
	DD	imagerel $unwind$??$_Reallocate_grow_by@V<lambda_319d5e083f45f90dcdce5dce53cbb275>@@D@?$basic_string@DU?$char_traits@D@std@@V?$allocator@D@2@@std@@AEAAAEAV01@_KV<lambda_319d5e083f45f90dcdce5dce53cbb275>@@D@Z
xdata	ENDS
;	COMDAT xdata
xdata	SEGMENT
$chain$4$??$_Reallocate_grow_by@V<lambda_319d5e083f45f90dcdce5dce53cbb275>@@D@?$basic_string@DU?$char_traits@D@std@@V?$allocator@D@2@@std@@AEAAAEAV01@_KV<lambda_319d5e083f45f90dcdce5dce53cbb275>@@D@Z DD 060021H
	DD	04e400H
	DD	0dc400H
	DD	0c7400H
	DD	imagerel $LN71
	DD	imagerel $LN71+46
	DD	imagerel $unwind$??$_Reallocate_grow_by@V<lambda_319d5e083f45f90dcdce5dce53cbb275>@@D@?$basic_string@DU?$char_traits@D@std@@V?$allocator@D@2@@std@@AEAAAEAV01@_KV<lambda_319d5e083f45f90dcdce5dce53cbb275>@@D@Z
xdata	ENDS
;	COMDAT xdata
xdata	SEGMENT
$chain$2$??$_Reallocate_grow_by@V<lambda_319d5e083f45f90dcdce5dce53cbb275>@@D@?$basic_string@DU?$char_traits@D@std@@V?$allocator@D@2@@std@@AEAAAEAV01@_KV<lambda_319d5e083f45f90dcdce5dce53cbb275>@@D@Z DD 064521H
	DD	0c7445H
	DD	04e411H
	DD	0dc405H
	DD	imagerel $LN71
	DD	imagerel $LN71+46
	DD	imagerel $unwind$??$_Reallocate_grow_by@V<lambda_319d5e083f45f90dcdce5dce53cbb275>@@D@?$basic_string@DU?$char_traits@D@std@@V?$allocator@D@2@@std@@AEAAAEAV01@_KV<lambda_319d5e083f45f90dcdce5dce53cbb275>@@D@Z
xdata	ENDS
;	COMDAT xdata
xdata	SEGMENT
$unwind$??$_Reallocate_grow_by@V<lambda_319d5e083f45f90dcdce5dce53cbb275>@@D@?$basic_string@DU?$char_traits@D@std@@V?$allocator@D@2@@std@@AEAAAEAV01@_KV<lambda_319d5e083f45f90dcdce5dce53cbb275>@@D@Z DD 050a01H
	DD	0f006420aH
	DD	050036004H
	DD	03002H
xdata	ENDS
;	COMDAT xdata
xdata	SEGMENT
$unwind$??R<lambda_319d5e083f45f90dcdce5dce53cbb275>@@QEBAXQEADQEBD_KD@Z DD 040a01H
	DD	06340aH
	DD	07006320aH
xdata	ENDS
;	COMDAT xdata
xdata	SEGMENT
$unwind$??$_Traits_find@U?$char_traits@D@std@@@std@@YA_KQEBD_K101@Z DD 0a1801H
	DD	0a6418H
	DD	095418H
	DD	083418H
	DD	0f0143218H
	DD	07010e012H
xdata	ENDS
;	COMDAT xdata
xdata	SEGMENT
$unwind$?catch$0@?0???$_Emplace_reallocate@E@?$vector@EV?$allocator@E@std@@@std@@QEAAPEAEQEAE$$QEAE@Z@4HA DD 020a01H
	DD	05006320aH
xdata	ENDS
;	COMDAT xdata
xdata	SEGMENT
$ip2state$??$_Emplace_reallocate@E@?$vector@EV?$allocator@E@std@@@std@@QEAAPEAEQEAE$$QEAE@Z DB 06H
	DB	'1', 02H
	DB	00H
	DB	'j'
	DB	02H
	DB	0a9H, 02H
	DB	00H
xdata	ENDS
;	COMDAT xdata
xdata	SEGMENT
$handlerMap$??$_Emplace_reallocate@E@?$vector@EV?$allocator@E@std@@@std@@QEAAPEAEQEAE$$QEAE@Z DB 02H
	DB	01H
	DB	080H
	DD	imagerel ?catch$0@?0???$_Emplace_reallocate@E@?$vector@EV?$allocator@E@std@@@std@@QEAAPEAEQEAE$$QEAE@Z@4HA
xdata	ENDS
;	COMDAT xdata
xdata	SEGMENT
$tryMap$??$_Emplace_reallocate@E@?$vector@EV?$allocator@E@std@@@std@@QEAAPEAEQEAE$$QEAE@Z DB 02H
	DB	00H
	DB	00H
	DB	02H
	DD	imagerel $handlerMap$??$_Emplace_reallocate@E@?$vector@EV?$allocator@E@std@@@std@@QEAAPEAEQEAE$$QEAE@Z
xdata	ENDS
;	COMDAT xdata
xdata	SEGMENT
$stateUnwindMap$??$_Emplace_reallocate@E@?$vector@EV?$allocator@E@std@@@std@@QEAAPEAEQEAE$$QEAE@Z DB 04H
	DB	08H
	DB	010H
xdata	ENDS
;	COMDAT xdata
xdata	SEGMENT
$cppxdata$??$_Emplace_reallocate@E@?$vector@EV?$allocator@E@std@@@std@@QEAAPEAEQEAE$$QEAE@Z DB 038H
	DD	imagerel $stateUnwindMap$??$_Emplace_reallocate@E@?$vector@EV?$allocator@E@std@@@std@@QEAAPEAEQEAE$$QEAE@Z
	DD	imagerel $tryMap$??$_Emplace_reallocate@E@?$vector@EV?$allocator@E@std@@@std@@QEAAPEAEQEAE$$QEAE@Z
	DD	imagerel $ip2state$??$_Emplace_reallocate@E@?$vector@EV?$allocator@E@std@@@std@@QEAAPEAEQEAE$$QEAE@Z
xdata	ENDS
;	COMDAT xdata
xdata	SEGMENT
$unwind$??$_Emplace_reallocate@E@?$vector@EV?$allocator@E@std@@@std@@QEAAPEAEQEAE$$QEAE@Z DD 0a1719H
	DD	0116417H
	DD	0103417H
	DD	0f0137217H
	DD	0d00fe011H
	DD	0700bc00dH
	DD	imagerel __CxxFrameHandler4
	DD	imagerel $cppxdata$??$_Emplace_reallocate@E@?$vector@EV?$allocator@E@std@@@std@@QEAAPEAEQEAE$$QEAE@Z
xdata	ENDS
;	COMDAT xdata
xdata	SEGMENT
$unwind$?catch$0@?0???$_Emplace_reallocate@PEAU_VM_INSTRUCTION@@@?$vector@PEAU_VM_INSTRUCTION@@V?$allocator@PEAU_VM_INSTRUCTION@@@std@@@std@@QEAAPEAPEAU_VM_INSTRUCTION@@QEAPEAU2@$$QEAPEAU2@@Z@4HA DD 020a01H
	DD	05006320aH
xdata	ENDS
;	COMDAT xdata
xdata	SEGMENT
$ip2state$??$_Emplace_reallocate@PEAU_VM_INSTRUCTION@@@?$vector@PEAU_VM_INSTRUCTION@@V?$allocator@PEAU_VM_INSTRUCTION@@@std@@@std@@QEAAPEAPEAU_VM_INSTRUCTION@@QEAPEAU2@$$QEAPEAU2@@Z DB 06H
	DB	0b1H, 02H
	DB	00H
	DB	'j'
	DB	02H
	DB	0b9H, 02H
	DB	00H
xdata	ENDS
;	COMDAT xdata
xdata	SEGMENT
$handlerMap$??$_Emplace_reallocate@PEAU_VM_INSTRUCTION@@@?$vector@PEAU_VM_INSTRUCTION@@V?$allocator@PEAU_VM_INSTRUCTION@@@std@@@std@@QEAAPEAPEAU_VM_INSTRUCTION@@QEAPEAU2@$$QEAPEAU2@@Z DB 02H
	DB	01H
	DB	080H
	DD	imagerel ?catch$0@?0???$_Emplace_reallocate@PEAU_VM_INSTRUCTION@@@?$vector@PEAU_VM_INSTRUCTION@@V?$allocator@PEAU_VM_INSTRUCTION@@@std@@@std@@QEAAPEAPEAU_VM_INSTRUCTION@@QEAPEAU2@$$QEAPEAU2@@Z@4HA
xdata	ENDS
;	COMDAT xdata
xdata	SEGMENT
$tryMap$??$_Emplace_reallocate@PEAU_VM_INSTRUCTION@@@?$vector@PEAU_VM_INSTRUCTION@@V?$allocator@PEAU_VM_INSTRUCTION@@@std@@@std@@QEAAPEAPEAU_VM_INSTRUCTION@@QEAPEAU2@$$QEAPEAU2@@Z DB 02H
	DB	00H
	DB	00H
	DB	02H
	DD	imagerel $handlerMap$??$_Emplace_reallocate@PEAU_VM_INSTRUCTION@@@?$vector@PEAU_VM_INSTRUCTION@@V?$allocator@PEAU_VM_INSTRUCTION@@@std@@@std@@QEAAPEAPEAU_VM_INSTRUCTION@@QEAPEAU2@$$QEAPEAU2@@Z
xdata	ENDS
;	COMDAT xdata
xdata	SEGMENT
$stateUnwindMap$??$_Emplace_reallocate@PEAU_VM_INSTRUCTION@@@?$vector@PEAU_VM_INSTRUCTION@@V?$allocator@PEAU_VM_INSTRUCTION@@@std@@@std@@QEAAPEAPEAU_VM_INSTRUCTION@@QEAPEAU2@$$QEAPEAU2@@Z DB 04H
	DB	08H
	DB	010H
xdata	ENDS
;	COMDAT xdata
xdata	SEGMENT
$cppxdata$??$_Emplace_reallocate@PEAU_VM_INSTRUCTION@@@?$vector@PEAU_VM_INSTRUCTION@@V?$allocator@PEAU_VM_INSTRUCTION@@@std@@@std@@QEAAPEAPEAU_VM_INSTRUCTION@@QEAPEAU2@$$QEAPEAU2@@Z DB 038H
	DD	imagerel $stateUnwindMap$??$_Emplace_reallocate@PEAU_VM_INSTRUCTION@@@?$vector@PEAU_VM_INSTRUCTION@@V?$allocator@PEAU_VM_INSTRUCTION@@@std@@@std@@QEAAPEAPEAU_VM_INSTRUCTION@@QEAPEAU2@$$QEAPEAU2@@Z
	DD	imagerel $tryMap$??$_Emplace_reallocate@PEAU_VM_INSTRUCTION@@@?$vector@PEAU_VM_INSTRUCTION@@V?$allocator@PEAU_VM_INSTRUCTION@@@std@@@std@@QEAAPEAPEAU_VM_INSTRUCTION@@QEAPEAU2@$$QEAPEAU2@@Z
	DD	imagerel $ip2state$??$_Emplace_reallocate@PEAU_VM_INSTRUCTION@@@?$vector@PEAU_VM_INSTRUCTION@@V?$allocator@PEAU_VM_INSTRUCTION@@@std@@@std@@QEAAPEAPEAU_VM_INSTRUCTION@@QEAPEAU2@$$QEAPEAU2@@Z
xdata	ENDS
;	COMDAT xdata
xdata	SEGMENT
$unwind$??$_Emplace_reallocate@PEAU_VM_INSTRUCTION@@@?$vector@PEAU_VM_INSTRUCTION@@V?$allocator@PEAU_VM_INSTRUCTION@@@std@@@std@@QEAAPEAPEAU_VM_INSTRUCTION@@QEAPEAU2@$$QEAPEAU2@@Z DD 0a1719H
	DD	0116417H
	DD	0103417H
	DD	0f0137217H
	DD	0d00fe011H
	DD	0700bc00dH
	DD	imagerel __CxxFrameHandler4
	DD	imagerel $cppxdata$??$_Emplace_reallocate@PEAU_VM_INSTRUCTION@@@?$vector@PEAU_VM_INSTRUCTION@@V?$allocator@PEAU_VM_INSTRUCTION@@@std@@@std@@QEAAPEAPEAU_VM_INSTRUCTION@@QEAPEAU2@$$QEAPEAU2@@Z
xdata	ENDS
;	COMDAT xdata
xdata	SEGMENT
$unwind$?catch$6@?0???$_Emplace_reallocate@AEBV?$basic_string@DU?$char_traits@D@std@@V?$allocator@D@2@@std@@@?$vector@V?$basic_string@DU?$char_traits@D@std@@V?$allocator@D@2@@std@@V?$allocator@V?$basic_string@DU?$char_traits@D@std@@V?$allocator@D@2@@std@@@2@@std@@QEAAPEAV?$basic_string@DU?$char_traits@D@std@@V?$allocator@D@2@@1@QEAV21@AEBV21@@Z@4HA DD 030b01H
	DD	05007420bH
	DD	03006H
xdata	ENDS
;	COMDAT xdata
xdata	SEGMENT
$ip2state$??$_Emplace_reallocate@AEBV?$basic_string@DU?$char_traits@D@std@@V?$allocator@D@2@@std@@@?$vector@V?$basic_string@DU?$char_traits@D@std@@V?$allocator@D@2@@std@@V?$allocator@V?$basic_string@DU?$char_traits@D@std@@V?$allocator@D@2@@std@@@2@@std@@QEAAPEAV?$basic_string@DU?$char_traits@D@std@@V?$allocator@D@2@@1@QEAV21@AEBV21@@Z DB 06H
	DB	'y', 02H
	DB	00H
	DB	0b4H
	DB	02H
	DB	01H, 04H
	DB	00H
xdata	ENDS
;	COMDAT xdata
xdata	SEGMENT
$handlerMap$??$_Emplace_reallocate@AEBV?$basic_string@DU?$char_traits@D@std@@V?$allocator@D@2@@std@@@?$vector@V?$basic_string@DU?$char_traits@D@std@@V?$allocator@D@2@@std@@V?$allocator@V?$basic_string@DU?$char_traits@D@std@@V?$allocator@D@2@@std@@@2@@std@@QEAAPEAV?$basic_string@DU?$char_traits@D@std@@V?$allocator@D@2@@1@QEAV21@AEBV21@@Z DB 02H
	DB	01H
	DB	080H
	DD	imagerel ?catch$6@?0???$_Emplace_reallocate@AEBV?$basic_string@DU?$char_traits@D@std@@V?$allocator@D@2@@std@@@?$vector@V?$basic_string@DU?$char_traits@D@std@@V?$allocator@D@2@@std@@V?$allocator@V?$basic_string@DU?$char_traits@D@std@@V?$allocator@D@2@@std@@@2@@std@@QEAAPEAV?$basic_string@DU?$char_traits@D@std@@V?$allocator@D@2@@1@QEAV21@AEBV21@@Z@4HA
xdata	ENDS
;	COMDAT xdata
xdata	SEGMENT
$tryMap$??$_Emplace_reallocate@AEBV?$basic_string@DU?$char_traits@D@std@@V?$allocator@D@2@@std@@@?$vector@V?$basic_string@DU?$char_traits@D@std@@V?$allocator@D@2@@std@@V?$allocator@V?$basic_string@DU?$char_traits@D@std@@V?$allocator@D@2@@std@@@2@@std@@QEAAPEAV?$basic_string@DU?$char_traits@D@std@@V?$allocator@D@2@@1@QEAV21@AEBV21@@Z DB 02H
	DB	00H
	DB	00H
	DB	02H
	DD	imagerel $handlerMap$??$_Emplace_reallocate@AEBV?$basic_string@DU?$char_traits@D@std@@V?$allocator@D@2@@std@@@?$vector@V?$basic_string@DU?$char_traits@D@std@@V?$allocator@D@2@@std@@V?$allocator@V?$basic_string@DU?$char_traits@D@std@@V?$allocator@D@2@@std@@@2@@std@@QEAAPEAV?$basic_string@DU?$char_traits@D@std@@V?$allocator@D@2@@1@QEAV21@AEBV21@@Z
xdata	ENDS
;	COMDAT xdata
xdata	SEGMENT
$stateUnwindMap$??$_Emplace_reallocate@AEBV?$basic_string@DU?$char_traits@D@std@@V?$allocator@D@2@@std@@@?$vector@V?$basic_string@DU?$char_traits@D@std@@V?$allocator@D@2@@std@@V?$allocator@V?$basic_string@DU?$char_traits@D@std@@V?$allocator@D@2@@std@@@2@@std@@QEAAPEAV?$basic_string@DU?$char_traits@D@std@@V?$allocator@D@2@@1@QEAV21@AEBV21@@Z DB 04H
	DB	08H
	DB	010H
xdata	ENDS
;	COMDAT xdata
xdata	SEGMENT
$cppxdata$??$_Emplace_reallocate@AEBV?$basic_string@DU?$char_traits@D@std@@V?$allocator@D@2@@std@@@?$vector@V?$basic_string@DU?$char_traits@D@std@@V?$allocator@D@2@@std@@V?$allocator@V?$basic_string@DU?$char_traits@D@std@@V?$allocator@D@2@@std@@@2@@std@@QEAAPEAV?$basic_string@DU?$char_traits@D@std@@V?$allocator@D@2@@1@QEAV21@AEBV21@@Z DB 038H
	DD	imagerel $stateUnwindMap$??$_Emplace_reallocate@AEBV?$basic_string@DU?$char_traits@D@std@@V?$allocator@D@2@@std@@@?$vector@V?$basic_string@DU?$char_traits@D@std@@V?$allocator@D@2@@std@@V?$allocator@V?$basic_string@DU?$char_traits@D@std@@V?$allocator@D@2@@std@@@2@@std@@QEAAPEAV?$basic_string@DU?$char_traits@D@std@@V?$allocator@D@2@@1@QEAV21@AEBV21@@Z
	DD	imagerel $tryMap$??$_Emplace_reallocate@AEBV?$basic_string@DU?$char_traits@D@std@@V?$allocator@D@2@@std@@@?$vector@V?$basic_string@DU?$char_traits@D@std@@V?$allocator@D@2@@std@@V?$allocator@V?$basic_string@DU?$char_traits@D@std@@V?$allocator@D@2@@std@@@2@@std@@QEAAPEAV?$basic_string@DU?$char_traits@D@std@@V?$allocator@D@2@@1@QEAV21@AEBV21@@Z
	DD	imagerel $ip2state$??$_Emplace_reallocate@AEBV?$basic_string@DU?$char_traits@D@std@@V?$allocator@D@2@@std@@@?$vector@V?$basic_string@DU?$char_traits@D@std@@V?$allocator@D@2@@std@@V?$allocator@V?$basic_string@DU?$char_traits@D@std@@V?$allocator@D@2@@std@@@2@@std@@QEAAPEAV?$basic_string@DU?$char_traits@D@std@@V?$allocator@D@2@@1@QEAV21@AEBV21@@Z
xdata	ENDS
;	COMDAT xdata
xdata	SEGMENT
$unwind$??$_Emplace_reallocate@AEBV?$basic_string@DU?$char_traits@D@std@@V?$allocator@D@2@@std@@@?$vector@V?$basic_string@DU?$char_traits@D@std@@V?$allocator@D@2@@std@@V?$allocator@V?$basic_string@DU?$char_traits@D@std@@V?$allocator@D@2@@std@@@2@@std@@QEAAPEAV?$basic_string@DU?$char_traits@D@std@@V?$allocator@D@2@@1@QEAV21@AEBV21@@Z DD 081019H
	DD	0f00c9210H
	DD	0d008e00aH
	DD	07004c006H
	DD	030026003H
	DD	imagerel __CxxFrameHandler4
	DD	imagerel $cppxdata$??$_Emplace_reallocate@AEBV?$basic_string@DU?$char_traits@D@std@@V?$allocator@D@2@@std@@@?$vector@V?$basic_string@DU?$char_traits@D@std@@V?$allocator@D@2@@std@@V?$allocator@V?$basic_string@DU?$char_traits@D@std@@V?$allocator@D@2@@std@@@2@@std@@QEAAPEAV?$basic_string@DU?$char_traits@D@std@@V?$allocator@D@2@@1@QEAV21@AEBV21@@Z
xdata	ENDS
;	COMDAT xdata
xdata	SEGMENT
$unwind$??$_Emplace_back_with_unused_capacity@AEBV?$basic_string@DU?$char_traits@D@std@@V?$allocator@D@2@@std@@@?$vector@V?$basic_string@DU?$char_traits@D@std@@V?$allocator@D@2@@std@@V?$allocator@V?$basic_string@DU?$char_traits@D@std@@V?$allocator@D@2@@std@@@2@@std@@AEAAAEAV?$basic_string@DU?$char_traits@D@std@@V?$allocator@D@2@@1@AEBV21@@Z DD 020601H
	DD	030023206H
xdata	ENDS
;	COMDAT xdata
xdata	SEGMENT
$unwind$??$emplace_back@AEBV?$basic_string@DU?$char_traits@D@std@@V?$allocator@D@2@@std@@@?$vector@V?$basic_string@DU?$char_traits@D@std@@V?$allocator@D@2@@std@@V?$allocator@V?$basic_string@DU?$char_traits@D@std@@V?$allocator@D@2@@std@@@2@@std@@QEAAAEAV?$basic_string@DU?$char_traits@D@std@@V?$allocator@D@2@@1@AEBV21@@Z DD 020601H
	DD	030023206H
xdata	ENDS
;	COMDAT xdata
xdata	SEGMENT
$ip2state$??$use_facet@V?$codecvt@DDU_Mbstatet@@@std@@@std@@YAAEBV?$codecvt@DDU_Mbstatet@@@0@AEBVlocale@0@@Z DB 08H
	DB	084H
	DB	02H
	DB	0d4H
	DB	04H
	DB	':'
	DB	00H
	DB	'V'
	DB	02H
xdata	ENDS
;	COMDAT xdata
xdata	SEGMENT
$stateUnwindMap$??$use_facet@V?$codecvt@DDU_Mbstatet@@@std@@@std@@YAAEBV?$codecvt@DDU_Mbstatet@@@0@AEBVlocale@0@@Z DB 04H
	DB	0aH
	DD	imagerel __imp_??1_Lockit@std@@QEAA@XZ
	DB	050H
	DB	032H
	DD	imagerel ??1?$unique_ptr@V_Facet_base@std@@U?$default_delete@V_Facet_base@std@@@2@@std@@QEAA@XZ
	DB	060H
xdata	ENDS
;	COMDAT xdata
xdata	SEGMENT
$cppxdata$??$use_facet@V?$codecvt@DDU_Mbstatet@@@std@@@std@@YAAEBV?$codecvt@DDU_Mbstatet@@@0@AEBVlocale@0@@Z DB 028H
	DD	imagerel $stateUnwindMap$??$use_facet@V?$codecvt@DDU_Mbstatet@@@std@@@std@@YAAEBV?$codecvt@DDU_Mbstatet@@@0@AEBVlocale@0@@Z
	DD	imagerel $ip2state$??$use_facet@V?$codecvt@DDU_Mbstatet@@@std@@@std@@YAAEBV?$codecvt@DDU_Mbstatet@@@0@AEBVlocale@0@@Z
xdata	ENDS
;	COMDAT xdata
xdata	SEGMENT
$unwind$??$use_facet@V?$codecvt@DDU_Mbstatet@@@std@@@std@@YAAEBV?$codecvt@DDU_Mbstatet@@@0@AEBVlocale@0@@Z DD 061e19H
	DD	0c640fH
	DD	0b340fH
	DD	0700b720fH
	DD	imagerel __GSHandlerCheck_EH4
	DD	imagerel $cppxdata$??$use_facet@V?$codecvt@DDU_Mbstatet@@@std@@@std@@YAAEBV?$codecvt@DDU_Mbstatet@@@0@AEBVlocale@0@@Z
	DD	03aH
xdata	ENDS
;	COMDAT xdata
xdata	SEGMENT
$unwind$?catch$0@?0???$_Emplace_reallocate@$$V@?$vector@U_VM_SYMBOL@@V?$allocator@U_VM_SYMBOL@@@std@@@std@@QEAAPEAU_VM_SYMBOL@@QEAU2@@Z@4HA DD 020a01H
	DD	05006320aH
xdata	ENDS
;	COMDAT xdata
xdata	SEGMENT
$ip2state$??$_Emplace_reallocate@$$V@?$vector@U_VM_SYMBOL@@V?$allocator@U_VM_SYMBOL@@@std@@@std@@QEAAPEAU_VM_SYMBOL@@QEAU2@@Z DB 06H
	DB	091H, 03H
	DB	00H
	DB	'j'
	DB	02H
	DB	'm', 03H
	DB	00H
xdata	ENDS
;	COMDAT xdata
xdata	SEGMENT
$handlerMap$??$_Emplace_reallocate@$$V@?$vector@U_VM_SYMBOL@@V?$allocator@U_VM_SYMBOL@@@std@@@std@@QEAAPEAU_VM_SYMBOL@@QEAU2@@Z DB 02H
	DB	01H
	DB	080H
	DD	imagerel ?catch$0@?0???$_Emplace_reallocate@$$V@?$vector@U_VM_SYMBOL@@V?$allocator@U_VM_SYMBOL@@@std@@@std@@QEAAPEAU_VM_SYMBOL@@QEAU2@@Z@4HA
xdata	ENDS
;	COMDAT xdata
xdata	SEGMENT
$tryMap$??$_Emplace_reallocate@$$V@?$vector@U_VM_SYMBOL@@V?$allocator@U_VM_SYMBOL@@@std@@@std@@QEAAPEAU_VM_SYMBOL@@QEAU2@@Z DB 02H
	DB	00H
	DB	00H
	DB	02H
	DD	imagerel $handlerMap$??$_Emplace_reallocate@$$V@?$vector@U_VM_SYMBOL@@V?$allocator@U_VM_SYMBOL@@@std@@@std@@QEAAPEAU_VM_SYMBOL@@QEAU2@@Z
xdata	ENDS
;	COMDAT xdata
xdata	SEGMENT
$stateUnwindMap$??$_Emplace_reallocate@$$V@?$vector@U_VM_SYMBOL@@V?$allocator@U_VM_SYMBOL@@@std@@@std@@QEAAPEAU_VM_SYMBOL@@QEAU2@@Z DB 04H
	DB	08H
	DB	010H
xdata	ENDS
;	COMDAT xdata
xdata	SEGMENT
$cppxdata$??$_Emplace_reallocate@$$V@?$vector@U_VM_SYMBOL@@V?$allocator@U_VM_SYMBOL@@@std@@@std@@QEAAPEAU_VM_SYMBOL@@QEAU2@@Z DB 038H
	DD	imagerel $stateUnwindMap$??$_Emplace_reallocate@$$V@?$vector@U_VM_SYMBOL@@V?$allocator@U_VM_SYMBOL@@@std@@@std@@QEAAPEAU_VM_SYMBOL@@QEAU2@@Z
	DD	imagerel $tryMap$??$_Emplace_reallocate@$$V@?$vector@U_VM_SYMBOL@@V?$allocator@U_VM_SYMBOL@@@std@@@std@@QEAAPEAU_VM_SYMBOL@@QEAU2@@Z
	DD	imagerel $ip2state$??$_Emplace_reallocate@$$V@?$vector@U_VM_SYMBOL@@V?$allocator@U_VM_SYMBOL@@@std@@@std@@QEAAPEAU_VM_SYMBOL@@QEAU2@@Z
xdata	ENDS
;	COMDAT xdata
xdata	SEGMENT
$unwind$??$_Emplace_reallocate@$$V@?$vector@U_VM_SYMBOL@@V?$allocator@U_VM_SYMBOL@@@std@@@std@@QEAAPEAU_VM_SYMBOL@@QEAU2@@Z DD 0a1719H
	DD	0116417H
	DD	0103417H
	DD	0f0137217H
	DD	0d00fe011H
	DD	0700bc00dH
	DD	imagerel __CxxFrameHandler4
	DD	imagerel $cppxdata$??$_Emplace_reallocate@$$V@?$vector@U_VM_SYMBOL@@V?$allocator@U_VM_SYMBOL@@@std@@@std@@QEAAPEAU_VM_SYMBOL@@QEAU2@@Z
xdata	ENDS
;	COMDAT xdata
xdata	SEGMENT
$unwind$?_Xlength@?$vector@U_VM_SYMBOL@@V?$allocator@U_VM_SYMBOL@@@std@@@std@@CAXXZ DD 010401H
	DD	04204H
xdata	ENDS
;	COMDAT xdata
xdata	SEGMENT
$unwind$?_Tidy@?$vector@U_VM_SYMBOL@@V?$allocator@U_VM_SYMBOL@@@std@@@std@@AEAAXXZ DD 020601H
	DD	030023206H
xdata	ENDS
;	COMDAT xdata
xdata	SEGMENT
$unwind$?_Change_array@?$vector@U_VM_SYMBOL@@V?$allocator@U_VM_SYMBOL@@@std@@@std@@AEAAXQEAU_VM_SYMBOL@@_K1@Z DD 081501H
	DD	097415H
	DD	086415H
	DD	073415H
	DD	0e0113215H
xdata	ENDS
;	COMDAT xdata
xdata	SEGMENT
$unwind$?_Umove@?$vector@U_VM_SYMBOL@@V?$allocator@U_VM_SYMBOL@@@std@@@std@@AEAAPEAU_VM_SYMBOL@@PEAU3@00@Z DD 040a01H
	DD	06340aH
	DD	07006320aH
xdata	ENDS
;	COMDAT xdata
xdata	SEGMENT
$unwind$??1?$vector@U_VM_SYMBOL@@V?$allocator@U_VM_SYMBOL@@@std@@@std@@QEAA@XZ DD 020601H
	DD	030023206H
xdata	ENDS
;	COMDAT xdata
xdata	SEGMENT
$unwind$?allocate@?$allocator@U_VM_SYMBOL@@@std@@QEAAPEAU_VM_SYMBOL@@_K@Z DD 010401H
	DD	04204H
xdata	ENDS
;	COMDAT xdata
xdata	SEGMENT
$unwind$?deallocate@?$allocator@U_VM_SYMBOL@@@std@@QEAAXQEAU_VM_SYMBOL@@_K@Z DD 010401H
	DD	04204H
xdata	ENDS
;	COMDAT xdata
xdata	SEGMENT
$unwind$??$?8DU?$char_traits@D@std@@V?$allocator@D@1@@std@@YA_NAEBV?$basic_string@DU?$char_traits@D@std@@V?$allocator@D@2@@0@0@Z DD 010401H
	DD	04204H
xdata	ENDS
;	COMDAT xdata
xdata	SEGMENT
$unwind$??$shuffle@V?$_Vector_iterator@V?$_Vector_val@U?$_Simple_types@PEAU_VM_INSTRUCTION@@@std@@@std@@@std@@AEAV?$mersenne_twister_engine@I$0CA@$0CHA@$0BIN@$0BP@$0JJAILANP@$0L@$0PPPPPPPP@$06$0JNCMFGIA@$0P@$0OPMGAAAA@$0BC@$0GMAHIJGF@@2@@std@@YAXV?$_Vector_iterator@V?$_Vector_val@U?$_Simple_types@PEAU_VM_INSTRUCTION@@@std@@@std@@@0@0AEAV?$mersenne_twister_engine@I$0CA@$0CHA@$0BIN@$0BP@$0JJAILANP@$0L@$0PPPPPPPP@$06$0JNCMFGIA@$0P@$0OPMGAAAA@$0BC@$0GMAHIJGF@@0@@Z DD 010401H
	DD	08204H
xdata	ENDS
;	COMDAT xdata
xdata	SEGMENT
$unwind$?_Refill_lower@?$mersenne_twister@I$0CA@$0CHA@$0BIN@$0BP@$0JJAILANP@$0L@$06$0JNCMFGIA@$0P@$0OPMGAAAA@$0BC@@std@@IEAAXXZ DD 020501H
	DD	013405H
xdata	ENDS
;	COMDAT xdata
xdata	SEGMENT
$chain$1$??R?$mersenne_twister@I$0CA@$0CHA@$0BIN@$0BP@$0JJAILANP@$0L@$06$0JNCMFGIA@$0P@$0OPMGAAAA@$0BC@@std@@QEAAIXZ DD 021H
	DD	imagerel $LN33
	DD	imagerel $LN33+116
	DD	imagerel $unwind$??R?$mersenne_twister@I$0CA@$0CHA@$0BIN@$0BP@$0JJAILANP@$0L@$06$0JNCMFGIA@$0P@$0OPMGAAAA@$0BC@@std@@QEAAIXZ
xdata	ENDS
;	COMDAT xdata
xdata	SEGMENT
$chain$0$??R?$mersenne_twister@I$0CA@$0CHA@$0BIN@$0BP@$0JJAILANP@$0L@$06$0JNCMFGIA@$0P@$0OPMGAAAA@$0BC@@std@@QEAAIXZ DD 020421H
	DD	03404H
	DD	imagerel $LN33
	DD	imagerel $LN33+116
	DD	imagerel $unwind$??R?$mersenne_twister@I$0CA@$0CHA@$0BIN@$0BP@$0JJAILANP@$0L@$06$0JNCMFGIA@$0P@$0OPMGAAAA@$0BC@@std@@QEAAIXZ
xdata	ENDS
;	COMDAT xdata
xdata	SEGMENT
$unwind$??R?$mersenne_twister@I$0CA@$0CHA@$0BIN@$0BP@$0JJAILANP@$0L@$06$0JNCMFGIA@$0P@$0OPMGAAAA@$0BC@@std@@QEAAIXZ DD 010401H
	DD	0204H
xdata	ENDS
;	COMDAT xdata
xdata	SEGMENT
$unwind$??$transform@V?$_String_iterator@V?$_String_val@U?$_Simple_types@D@std@@@std@@@std@@V12@P6AHH@Z@std@@YA?AV?$_String_iterator@V?$_String_val@U?$_Simple_types@D@std@@@std@@@0@V10@0V10@P6AHH@Z@Z DD 081201H
	DD	0a5412H
	DD	093412H
	DD	0e00e3212H
	DD	0600b700cH
xdata	ENDS
;	COMDAT xdata
xdata	SEGMENT
$unwind$??$getline@DU?$char_traits@D@std@@V?$allocator@D@2@@std@@YAAEAV?$basic_istream@DU?$char_traits@D@std@@@0@AEAV10@AEAV?$basic_string@DU?$char_traits@D@std@@V?$allocator@D@2@@0@@Z DD 040a01H
	DD	06340aH
	DD	07006320aH
xdata	ENDS
;	COMDAT xdata
xdata	SEGMENT
$unwind$??_D?$basic_ifstream@DU?$char_traits@D@std@@@std@@QEAAXXZ DD 020601H
	DD	030023206H
xdata	ENDS
;	COMDAT xdata
xdata	SEGMENT
$unwind$??_G?$basic_ifstream@DU?$char_traits@D@std@@@std@@UEAAPEAXI@Z DD 040a01H
	DD	06340aH
	DD	07006320aH
xdata	ENDS
;	COMDAT xdata
xdata	SEGMENT
$unwind$??_G?$basic_filebuf@DU?$char_traits@D@std@@@std@@UEAAPEAXI@Z DD 040a01H
	DD	06340aH
	DD	07006320aH
xdata	ENDS
;	COMDAT xdata
xdata	SEGMENT
$unwind$?_Initcvt@?$basic_filebuf@DU?$char_traits@D@std@@@std@@IEAAXAEBV?$codecvt@DDU_Mbstatet@@@2@@Z DD 040a01H
	DD	06340aH
	DD	07006320aH
xdata	ENDS
;	COMDAT xdata
xdata	SEGMENT
$chain$3$?_Endwrite@?$basic_filebuf@DU?$char_traits@D@std@@@std@@IEAA_NXZ DD 021H
	DD	imagerel $LN19
	DD	imagerel $LN19+53
	DD	imagerel $unwind$?_Endwrite@?$basic_filebuf@DU?$char_traits@D@std@@@std@@IEAA_NXZ
xdata	ENDS
;	COMDAT xdata
xdata	SEGMENT
$chain$2$?_Endwrite@?$basic_filebuf@DU?$char_traits@D@std@@@std@@IEAA_NXZ DD 020021H
	DD	0f7400H
	DD	imagerel $LN19
	DD	imagerel $LN19+53
	DD	imagerel $unwind$?_Endwrite@?$basic_filebuf@DU?$char_traits@D@std@@@std@@IEAA_NXZ
xdata	ENDS
;	COMDAT xdata
xdata	SEGMENT
$chain$0$?_Endwrite@?$basic_filebuf@DU?$char_traits@D@std@@@std@@IEAA_NXZ DD 020521H
	DD	0f7405H
	DD	imagerel $LN19
	DD	imagerel $LN19+53
	DD	imagerel $unwind$?_Endwrite@?$basic_filebuf@DU?$char_traits@D@std@@@std@@IEAA_NXZ
xdata	ENDS
;	COMDAT xdata
xdata	SEGMENT
$unwind$?_Endwrite@?$basic_filebuf@DU?$char_traits@D@std@@@std@@IEAA_NXZ DD 021519H
	DD	03002b206H
	DD	imagerel __GSHandlerCheck
	DD	058H
xdata	ENDS
;	COMDAT xdata
xdata	SEGMENT
$unwind$?_Init@?$basic_filebuf@DU?$char_traits@D@std@@@std@@IEAAXPEAU_iobuf@@W4_Initfl@12@@Z DD 061e19H
	DD	0d640fH
	DD	0c340fH
	DD	0700b720fH
	DD	imagerel __GSHandlerCheck
	DD	038H
xdata	ENDS
;	COMDAT xdata
xdata	SEGMENT
$unwind$?imbue@?$basic_filebuf@DU?$char_traits@D@std@@@std@@MEAAXAEBVlocale@2@@Z DD 040a01H
	DD	06340aH
	DD	07006320aH
xdata	ENDS
;	COMDAT xdata
xdata	SEGMENT
$unwind$?sync@?$basic_filebuf@DU?$char_traits@D@std@@@std@@MEAAHXZ DD 020601H
	DD	030023206H
xdata	ENDS
;	COMDAT xdata
xdata	SEGMENT
$chain$1$?setbuf@?$basic_filebuf@DU?$char_traits@D@std@@@std@@MEAAPEAV?$basic_streambuf@DU?$char_traits@D@std@@@2@PEAD_J@Z DD 021H
	DD	imagerel $LN19
	DD	imagerel $LN19+77
	DD	imagerel $unwind$?setbuf@?$basic_filebuf@DU?$char_traits@D@std@@@std@@MEAAPEAV?$basic_streambuf@DU?$char_traits@D@std@@@2@PEAD_J@Z
xdata	ENDS
;	COMDAT xdata
xdata	SEGMENT
$chain$0$?setbuf@?$basic_filebuf@DU?$char_traits@D@std@@@std@@MEAAPEAV?$basic_streambuf@DU?$char_traits@D@std@@@2@PEAD_J@Z DD 020521H
	DD	087405H
	DD	imagerel $LN19
	DD	imagerel $LN19+77
	DD	imagerel $unwind$?setbuf@?$basic_filebuf@DU?$char_traits@D@std@@@std@@MEAAPEAV?$basic_streambuf@DU?$char_traits@D@std@@@2@PEAD_J@Z
xdata	ENDS
;	COMDAT xdata
xdata	SEGMENT
$unwind$?setbuf@?$basic_filebuf@DU?$char_traits@D@std@@@std@@MEAAPEAV?$basic_streambuf@DU?$char_traits@D@std@@@2@PEAD_J@Z DD 031619H
	DD	060038207H
	DD	03002H
	DD	imagerel __GSHandlerCheck
	DD	038H
xdata	ENDS
;	COMDAT xdata
xdata	SEGMENT
$unwind$?seekpos@?$basic_filebuf@DU?$char_traits@D@std@@@std@@MEAA?AV?$fpos@U_Mbstatet@@@2@V32@H@Z DD 041719H
	DD	070045208H
	DD	030026003H
	DD	imagerel __GSHandlerCheck
	DD	028H
xdata	ENDS
;	COMDAT xdata
xdata	SEGMENT
$unwind$?seekoff@?$basic_filebuf@DU?$char_traits@D@std@@@std@@MEAA?AV?$fpos@U_Mbstatet@@@2@_JHH@Z DD 051819H
	DD	070056209H
	DD	050036004H
	DD	03002H
	DD	imagerel __GSHandlerCheck
	DD	028H
xdata	ENDS
;	COMDAT xdata
xdata	SEGMENT
$unwind$?xsputn@?$basic_filebuf@DU?$char_traits@D@std@@@std@@MEAA_JPEBD_J@Z DD 0a4501H
	DD	076445H
	DD	065440H
	DD	097410H
	DD	083410H
	DD	0e00c3210H
xdata	ENDS
;	COMDAT xdata
xdata	SEGMENT
$chain$3$?xsgetn@?$basic_filebuf@DU?$char_traits@D@std@@@std@@MEAA_JPEAD_J@Z DD 040021H
	DD	047400H
	DD	053400H
	DD	imagerel $LN39
	DD	imagerel $LN39+60
	DD	imagerel $unwind$?xsgetn@?$basic_filebuf@DU?$char_traits@D@std@@@std@@MEAA_JPEAD_J@Z
xdata	ENDS
;	COMDAT xdata
xdata	SEGMENT
$chain$1$?xsgetn@?$basic_filebuf@DU?$char_traits@D@std@@@std@@MEAA_JPEAD_J@Z DD 041f21H
	DD	05341fH
	DD	047405H
	DD	imagerel $LN39
	DD	imagerel $LN39+60
	DD	imagerel $unwind$?xsgetn@?$basic_filebuf@DU?$char_traits@D@std@@@std@@MEAA_JPEAD_J@Z
xdata	ENDS
;	COMDAT xdata
xdata	SEGMENT
$unwind$?xsgetn@?$basic_filebuf@DU?$char_traits@D@std@@@std@@MEAA_JPEAD_J@Z DD 040901H
	DD	0e0055209H
	DD	050026003H
xdata	ENDS
;	COMDAT xdata
xdata	SEGMENT
$ip2state$?uflow@?$basic_filebuf@DU?$char_traits@D@std@@@std@@MEAAHXZ DB 04H
	DB	0b1H, 04H
	DB	02H
	DB	'Q', 03H
	DB	00H
xdata	ENDS
;	COMDAT xdata
xdata	SEGMENT
$stateUnwindMap$?uflow@?$basic_filebuf@DU?$char_traits@D@std@@@std@@MEAAHXZ DB 02H
	DB	0aH
	DD	imagerel ??1?$basic_string@DU?$char_traits@D@std@@V?$allocator@D@2@@std@@QEAA@XZ
	DB	0b0H
xdata	ENDS
;	COMDAT xdata
xdata	SEGMENT
$cppxdata$?uflow@?$basic_filebuf@DU?$char_traits@D@std@@@std@@MEAAHXZ DB 028H
	DD	imagerel $stateUnwindMap$?uflow@?$basic_filebuf@DU?$char_traits@D@std@@@std@@MEAAHXZ
	DD	imagerel $ip2state$?uflow@?$basic_filebuf@DU?$char_traits@D@std@@@std@@MEAAHXZ
xdata	ENDS
;	COMDAT xdata
xdata	SEGMENT
$unwind$?uflow@?$basic_filebuf@DU?$char_traits@D@std@@@std@@MEAAHXZ DD 062319H
	DD	0147415H
	DD	0133415H
	DD	0500bf215H
	DD	imagerel __GSHandlerCheck_EH4
	DD	imagerel $cppxdata$?uflow@?$basic_filebuf@DU?$char_traits@D@std@@@std@@MEAAHXZ
	DD	07aH
xdata	ENDS
;	COMDAT xdata
xdata	SEGMENT
$chain$2$?underflow@?$basic_filebuf@DU?$char_traits@D@std@@@std@@MEAAHXZ DD 020021H
	DD	067400H
	DD	imagerel $LN22
	DD	imagerel $LN22+51
	DD	imagerel $unwind$?underflow@?$basic_filebuf@DU?$char_traits@D@std@@@std@@MEAAHXZ
xdata	ENDS
;	COMDAT xdata
xdata	SEGMENT
$chain$0$?underflow@?$basic_filebuf@DU?$char_traits@D@std@@@std@@MEAAHXZ DD 020521H
	DD	067405H
	DD	imagerel $LN22
	DD	imagerel $LN22+51
	DD	imagerel $unwind$?underflow@?$basic_filebuf@DU?$char_traits@D@std@@@std@@MEAAHXZ
xdata	ENDS
;	COMDAT xdata
xdata	SEGMENT
$unwind$?underflow@?$basic_filebuf@DU?$char_traits@D@std@@@std@@MEAAHXZ DD 020601H
	DD	030023206H
xdata	ENDS
;	COMDAT xdata
xdata	SEGMENT
$unwind$?pbackfail@?$basic_filebuf@DU?$char_traits@D@std@@@std@@MEAAHH@Z DD 040a01H
	DD	08340aH
	DD	07006320aH
xdata	ENDS
;	COMDAT xdata
xdata	SEGMENT
$chain$1$?overflow@?$basic_filebuf@DU?$char_traits@D@std@@@std@@MEAAHH@Z DD 021H
	DD	imagerel $LN46
	DD	imagerel $LN46+96
	DD	imagerel $unwind$?overflow@?$basic_filebuf@DU?$char_traits@D@std@@@std@@MEAAHH@Z
xdata	ENDS
;	COMDAT xdata
xdata	SEGMENT
$chain$0$?overflow@?$basic_filebuf@DU?$char_traits@D@std@@@std@@MEAAHH@Z DD 020821H
	DD	0146408H
	DD	imagerel $LN46
	DD	imagerel $LN46+96
	DD	imagerel $unwind$?overflow@?$basic_filebuf@DU?$char_traits@D@std@@@std@@MEAAHH@Z
xdata	ENDS
;	COMDAT xdata
xdata	SEGMENT
$unwind$?overflow@?$basic_filebuf@DU?$char_traits@D@std@@@std@@MEAAHH@Z DD 041c19H
	DD	015340dH
	DD	07006f20dH
	DD	imagerel __GSHandlerCheck
	DD	078H
xdata	ENDS
;	COMDAT xdata
xdata	SEGMENT
$unwind$?close@?$basic_filebuf@DU?$char_traits@D@std@@@std@@QEAAPEAV12@XZ DD 060f01H
	DD	08640fH
	DD	07340fH
	DD	0700b320fH
xdata	ENDS
;	COMDAT xdata
xdata	SEGMENT
$ip2state$?open@?$basic_filebuf@DU?$char_traits@D@std@@@std@@QEAAPEAV12@PEBDHH@Z DB 06H
	DB	't'
	DB	00H
	DB	']', 02H
	DB	02H
	DB	'X'
	DB	00H
xdata	ENDS
;	COMDAT xdata
xdata	SEGMENT
$stateUnwindMap$?open@?$basic_filebuf@DU?$char_traits@D@std@@@std@@QEAAPEAV12@PEBDHH@Z DB 02H
	DB	0aH
	DD	imagerel ??1locale@std@@QEAA@XZ
	DB	060H
xdata	ENDS
;	COMDAT xdata
xdata	SEGMENT
$cppxdata$?open@?$basic_filebuf@DU?$char_traits@D@std@@@std@@QEAAPEAV12@PEBDHH@Z DB 028H
	DD	imagerel $stateUnwindMap$?open@?$basic_filebuf@DU?$char_traits@D@std@@@std@@QEAAPEAV12@PEBDHH@Z
	DD	imagerel $ip2state$?open@?$basic_filebuf@DU?$char_traits@D@std@@@std@@QEAAPEAV12@PEBDHH@Z
xdata	ENDS
;	COMDAT xdata
xdata	SEGMENT
$unwind$?open@?$basic_filebuf@DU?$char_traits@D@std@@@std@@QEAAPEAV12@PEBDHH@Z DD 041719H
	DD	070049208H
	DD	030026003H
	DD	imagerel __GSHandlerCheck_EH4
	DD	imagerel $cppxdata$?open@?$basic_filebuf@DU?$char_traits@D@std@@@std@@QEAAPEAV12@PEBDHH@Z
	DD	042H
xdata	ENDS
;	COMDAT xdata
xdata	SEGMENT
$ip2state$??1?$basic_filebuf@DU?$char_traits@D@std@@@std@@UEAA@XZ DB 02H
	DB	0aaH
	DB	00H
xdata	ENDS
;	COMDAT xdata
xdata	SEGMENT
$cppxdata$??1?$basic_filebuf@DU?$char_traits@D@std@@@std@@UEAA@XZ DB 060H
	DD	imagerel $ip2state$??1?$basic_filebuf@DU?$char_traits@D@std@@@std@@UEAA@XZ
xdata	ENDS
;	COMDAT xdata
xdata	SEGMENT
$unwind$??1?$basic_filebuf@DU?$char_traits@D@std@@@std@@UEAA@XZ DD 020619H
	DD	030023206H
	DD	imagerel __CxxFrameHandler4
	DD	imagerel $cppxdata$??1?$basic_filebuf@DU?$char_traits@D@std@@@std@@UEAA@XZ
xdata	ENDS
;	COMDAT xdata
xdata	SEGMENT
$ip2state$??0?$basic_filebuf@DU?$char_traits@D@std@@@std@@QEAA@XZ DB 04H
	DB	01cH
	DB	00H
	DB	'8'
	DB	02H
xdata	ENDS
;	COMDAT xdata
xdata	SEGMENT
$stateUnwindMap$??0?$basic_filebuf@DU?$char_traits@D@std@@@std@@QEAA@XZ DB 02H
	DB	0cH
	DD	imagerel __imp_??1?$basic_streambuf@DU?$char_traits@D@std@@@std@@UEAA@XZ
	DB	040H
xdata	ENDS
;	COMDAT xdata
xdata	SEGMENT
$cppxdata$??0?$basic_filebuf@DU?$char_traits@D@std@@@std@@QEAA@XZ DB 028H
	DD	imagerel $stateUnwindMap$??0?$basic_filebuf@DU?$char_traits@D@std@@@std@@QEAA@XZ
	DD	imagerel $ip2state$??0?$basic_filebuf@DU?$char_traits@D@std@@@std@@QEAA@XZ
xdata	ENDS
;	COMDAT xdata
xdata	SEGMENT
$unwind$??0?$basic_filebuf@DU?$char_traits@D@std@@@std@@QEAA@XZ DD 020611H
	DD	030025206H
	DD	imagerel __CxxFrameHandler4
	DD	imagerel $cppxdata$??0?$basic_filebuf@DU?$char_traits@D@std@@@std@@QEAA@XZ
xdata	ENDS
;	COMDAT xdata
xdata	SEGMENT
$unwind$?close@?$basic_ifstream@DU?$char_traits@D@std@@@std@@QEAAXXZ DD 020601H
	DD	030023206H
xdata	ENDS
;	COMDAT xdata
xdata	SEGMENT
$unwind$??1?$basic_ifstream@DU?$char_traits@D@std@@@std@@UEAA@XZ DD 020601H
	DD	030023206H
xdata	ENDS
;	COMDAT xdata
xdata	SEGMENT
$unwind$??0?$basic_ifstream@DU?$char_traits@D@std@@@std@@QEAA@AEBV?$basic_string@DU?$char_traits@D@std@@V?$allocator@D@2@@1@HH@Z DD 020601H
	DD	030025206H
xdata	ENDS
;	COMDAT xdata
xdata	SEGMENT
$unwind$?dtor$0@?0???0?$basic_ifstream@DU?$char_traits@D@std@@@std@@QEAA@PEBDHH@Z@4HA DD 020601H
	DD	050023206H
xdata	ENDS
;	COMDAT xdata
xdata	SEGMENT
$ip2state$??0?$basic_ifstream@DU?$char_traits@D@std@@@std@@QEAA@PEBDHH@Z DB 010H
	DB	0a0H
	DB	00H
	DB	'>'
	DB	02H
	DB	'd'
	DB	04H
	DB	'8'
	DB	06H
	DB	'N'
	DB	08H
	DB	'U', 02H
	DB	0aH
	DB	'X'
	DB	08H
	DB	082H
	DB	00H
xdata	ENDS
;	COMDAT xdata
xdata	SEGMENT
$stateUnwindMap$??0?$basic_ifstream@DU?$char_traits@D@std@@@std@@QEAA@PEBDHH@Z DB 0aH
	DB	0eH
	DD	imagerel ?dtor$0@?0???0?$basic_ifstream@DU?$char_traits@D@std@@@std@@QEAA@PEBDHH@Z@4HA
	DB	02eH
	DD	imagerel ?dtor$1@?0???0?$basic_ifstream@DU?$char_traits@D@std@@@std@@QEAA@PEBDHH@Z@4HA
	DB	02cH
	DD	imagerel __imp_??1?$basic_streambuf@DU?$char_traits@D@std@@@std@@UEAA@XZ
	DB	080H
	DB	05eH
	DD	imagerel ?dtor$2@?0???0?$basic_ifstream@DU?$char_traits@D@std@@@std@@QEAA@PEBDHH@Z@4HA
	DB	02aH
	DD	imagerel ??1locale@std@@QEAA@XZ
	DB	060H
xdata	ENDS
;	COMDAT xdata
xdata	SEGMENT
$cppxdata$??0?$basic_ifstream@DU?$char_traits@D@std@@@std@@QEAA@PEBDHH@Z DB 028H
	DD	imagerel $stateUnwindMap$??0?$basic_ifstream@DU?$char_traits@D@std@@@std@@QEAA@PEBDHH@Z
	DD	imagerel $ip2state$??0?$basic_ifstream@DU?$char_traits@D@std@@@std@@QEAA@PEBDHH@Z
xdata	ENDS
;	COMDAT xdata
xdata	SEGMENT
$unwind$??0?$basic_ifstream@DU?$char_traits@D@std@@@std@@QEAA@PEBDHH@Z DD 071c19H
	DD	0f009c20dH
	DD	07005e007H
	DD	050036004H
	DD	03002H
	DD	imagerel __GSHandlerCheck_EH4
	DD	imagerel $cppxdata$??0?$basic_ifstream@DU?$char_traits@D@std@@@std@@QEAA@PEBDHH@Z
	DD	05aH
xdata	ENDS
;	COMDAT xdata
xdata	SEGMENT
$unwind$??$?8DU?$char_traits@D@std@@V?$allocator@D@1@@std@@YA_NAEBV?$basic_string@DU?$char_traits@D@std@@V?$allocator@D@2@@0@QEBD@Z DD 010401H
	DD	04204H
xdata	ENDS
;	COMDAT xdata
xdata	SEGMENT
$unwind$?_Xlength@?$vector@V?$basic_string@DU?$char_traits@D@std@@V?$allocator@D@2@@std@@V?$allocator@V?$basic_string@DU?$char_traits@D@std@@V?$allocator@D@2@@std@@@2@@std@@CAXXZ DD 010401H
	DD	04204H
xdata	ENDS
;	COMDAT xdata
xdata	SEGMENT
$unwind$?_Tidy@?$vector@V?$basic_string@DU?$char_traits@D@std@@V?$allocator@D@2@@std@@V?$allocator@V?$basic_string@DU?$char_traits@D@std@@V?$allocator@D@2@@std@@@2@@std@@AEAAXXZ DD 020601H
	DD	030023206H
xdata	ENDS
;	COMDAT xdata
xdata	SEGMENT
$unwind$?_Change_array@?$vector@V?$basic_string@DU?$char_traits@D@std@@V?$allocator@D@2@@std@@V?$allocator@V?$basic_string@DU?$char_traits@D@std@@V?$allocator@D@2@@std@@@2@@std@@AEAAXQEAV?$basic_string@DU?$char_traits@D@std@@V?$allocator@D@2@@2@_K1@Z DD 081401H
	DD	096414H
	DD	085414H
	DD	073414H
	DD	070103214H
xdata	ENDS
;	COMDAT xdata
xdata	SEGMENT
$unwind$?_Umove_if_noexcept@?$vector@V?$basic_string@DU?$char_traits@D@std@@V?$allocator@D@2@@std@@V?$allocator@V?$basic_string@DU?$char_traits@D@std@@V?$allocator@D@2@@std@@@2@@std@@AEAAXPEAV?$basic_string@DU?$char_traits@D@std@@V?$allocator@D@2@@2@00@Z DD 011719H
	DD	02209H
	DD	imagerel __GSHandlerCheck
	DD	00H
xdata	ENDS
;	COMDAT xdata
xdata	SEGMENT
$unwind$?push_back@?$vector@V?$basic_string@DU?$char_traits@D@std@@V?$allocator@D@2@@std@@V?$allocator@V?$basic_string@DU?$char_traits@D@std@@V?$allocator@D@2@@std@@@2@@std@@QEAAXAEBV?$basic_string@DU?$char_traits@D@std@@V?$allocator@D@2@@2@@Z DD 020601H
	DD	030023206H
xdata	ENDS
;	COMDAT xdata
xdata	SEGMENT
$unwind$??1?$vector@V?$basic_string@DU?$char_traits@D@std@@V?$allocator@D@2@@std@@V?$allocator@V?$basic_string@DU?$char_traits@D@std@@V?$allocator@D@2@@std@@@2@@std@@QEAA@XZ DD 020601H
	DD	030023206H
xdata	ENDS
;	COMDAT xdata
xdata	SEGMENT
$unwind$?allocate@?$allocator@V?$basic_string@DU?$char_traits@D@std@@V?$allocator@D@2@@std@@@std@@QEAAPEAV?$basic_string@DU?$char_traits@D@std@@V?$allocator@D@2@@2@_K@Z DD 010401H
	DD	04204H
xdata	ENDS
;	COMDAT xdata
xdata	SEGMENT
$unwind$?deallocate@?$allocator@V?$basic_string@DU?$char_traits@D@std@@V?$allocator@D@2@@std@@@std@@QEAAXQEAV?$basic_string@DU?$char_traits@D@std@@V?$allocator@D@2@@2@_K@Z DD 010401H
	DD	04204H
xdata	ENDS
;	COMDAT xdata
xdata	SEGMENT
$unwind$?VmGetVmEnterOpCode@@YAEPEAU_VM_ASSEMBLER@@@Z DD 040a01H
	DD	06340aH
	DD	07006320aH
xdata	ENDS
;	COMDAT xdata
xdata	SEGMENT
$ip2state$?VmBuildSymbolTable@@YAPEAXPEAU_VM_ASSEMBLER@@PEAK@Z DB 04H
	DB	'E', 02H
	DB	02H
	DB	015H, 05H
	DB	00H
xdata	ENDS
;	COMDAT xdata
xdata	SEGMENT
$stateUnwindMap$?VmBuildSymbolTable@@YAPEAXPEAU_VM_ASSEMBLER@@PEAK@Z DB 02H
	DB	0aH
	DD	imagerel ??1?$vector@U_VM_SYMBOL@@V?$allocator@U_VM_SYMBOL@@@std@@@std@@QEAA@XZ
	DB	040H
xdata	ENDS
;	COMDAT xdata
xdata	SEGMENT
$cppxdata$?VmBuildSymbolTable@@YAPEAXPEAU_VM_ASSEMBLER@@PEAK@Z DB 028H
	DD	imagerel $stateUnwindMap$?VmBuildSymbolTable@@YAPEAXPEAU_VM_ASSEMBLER@@PEAK@Z
	DD	imagerel $ip2state$?VmBuildSymbolTable@@YAPEAXPEAU_VM_ASSEMBLER@@PEAK@Z
xdata	ENDS
;	COMDAT xdata
xdata	SEGMENT
$unwind$?VmBuildSymbolTable@@YAPEAXPEAU_VM_ASSEMBLER@@PEAK@Z DD 0a2519H
	DD	0115416H
	DD	0103416H
	DD	0f0127216H
	DD	0c00ee010H
	DD	0600b700cH
	DD	imagerel __GSHandlerCheck_EH4
	DD	imagerel $cppxdata$?VmBuildSymbolTable@@YAPEAXPEAU_VM_ASSEMBLER@@PEAK@Z
	DD	03aH
xdata	ENDS
;	COMDAT xdata
xdata	SEGMENT
$unwind$?VmBuildHandlerTable@@YAXPEAU_VM_ASSEMBLER@@PEAK@Z DD 020501H
	DD	013405H
xdata	ENDS
;	COMDAT xdata
xdata	SEGMENT
$chain$3$?VmAssembleVmToBuffer@@YAPEAXPEAU_VM_ASSEMBLER@@PEAK@Z DD 021H
	DD	imagerel $LN21
	DD	imagerel $LN21+128
	DD	imagerel $unwind$?VmAssembleVmToBuffer@@YAPEAXPEAU_VM_ASSEMBLER@@PEAK@Z
xdata	ENDS
;	COMDAT xdata
xdata	SEGMENT
$chain$2$?VmAssembleVmToBuffer@@YAPEAXPEAU_VM_ASSEMBLER@@PEAK@Z DD 020521H
	DD	063405H
	DD	imagerel $LN21
	DD	imagerel $LN21+128
	DD	imagerel $unwind$?VmAssembleVmToBuffer@@YAPEAXPEAU_VM_ASSEMBLER@@PEAK@Z
xdata	ENDS
;	COMDAT xdata
xdata	SEGMENT
$unwind$?VmAssembleVmToBuffer@@YAPEAXPEAU_VM_ASSEMBLER@@PEAK@Z DD 087801H
	DD	086478H
	DD	075465H
	DD	09740bH
	DD	0e007320bH
xdata	ENDS
;	COMDAT xdata
xdata	SEGMENT
$chain$4$?VmAssembleCodeToBuffer@@YAPEAXPEAU_VM_ASSEMBLER@@PEAK@Z DD 021H
	DD	imagerel $LN105
	DD	imagerel $LN105+91
	DD	imagerel $unwind$?VmAssembleCodeToBuffer@@YAPEAXPEAU_VM_ASSEMBLER@@PEAK@Z
xdata	ENDS
;	COMDAT xdata
xdata	SEGMENT
$chain$3$?VmAssembleCodeToBuffer@@YAPEAXPEAU_VM_ASSEMBLER@@PEAK@Z DD 021H
	DD	imagerel $LN105+91
	DD	imagerel $LN105+111
	DD	imagerel $chain$0$?VmAssembleCodeToBuffer@@YAPEAXPEAU_VM_ASSEMBLER@@PEAK@Z
xdata	ENDS
;	COMDAT xdata
xdata	SEGMENT
$chain$2$?VmAssembleCodeToBuffer@@YAPEAXPEAU_VM_ASSEMBLER@@PEAK@Z DD 040a21H
	DD	04f40aH
	DD	0e5405H
	DD	imagerel $LN105+91
	DD	imagerel $LN105+111
	DD	imagerel $chain$0$?VmAssembleCodeToBuffer@@YAPEAXPEAU_VM_ASSEMBLER@@PEAK@Z
xdata	ENDS
;	COMDAT xdata
xdata	SEGMENT
$chain$0$?VmAssembleCodeToBuffer@@YAPEAXPEAU_VM_ASSEMBLER@@PEAK@Z DD 020521H
	DD	05e405H
	DD	imagerel $LN105
	DD	imagerel $LN105+91
	DD	imagerel $unwind$?VmAssembleCodeToBuffer@@YAPEAXPEAU_VM_ASSEMBLER@@PEAK@Z
xdata	ENDS
;	COMDAT xdata
xdata	SEGMENT
$unwind$?VmAssembleCodeToBuffer@@YAPEAXPEAU_VM_ASSEMBLER@@PEAK@Z DD 060c01H
	DD	0d008520cH
	DD	07004c006H
	DD	030026003H
xdata	ENDS
;	COMDAT xdata
xdata	SEGMENT
$unwind$?VmGetJumpDelta@@YAHPEAU_CODE_LINK@@@Z DD 060f01H
	DD	07640fH
	DD	06340fH
	DD	0700b320fH
xdata	ENDS
;	COMDAT xdata
xdata	SEGMENT
$chain$1$?VmGenerateRandomOpCodes@@YAXPEAU_VM_ASSEMBLER@@@Z DD 021H
	DD	imagerel $LN92
	DD	imagerel $LN92+183
	DD	imagerel $unwind$?VmGenerateRandomOpCodes@@YAXPEAU_VM_ASSEMBLER@@@Z
xdata	ENDS
;	COMDAT xdata
xdata	SEGMENT
$chain$0$?VmGenerateRandomOpCodes@@YAXPEAU_VM_ASSEMBLER@@@Z DD 020821H
	DD	0285c408H
	DD	imagerel $LN92
	DD	imagerel $LN92+183
	DD	imagerel $unwind$?VmGenerateRandomOpCodes@@YAXPEAU_VM_ASSEMBLER@@@Z
xdata	ENDS
;	COMDAT xdata
xdata	SEGMENT
$unwind$?VmGenerateRandomOpCodes@@YAXPEAU_VM_ASSEMBLER@@@Z DD 092b19H
	DD	02863419H
	DD	027e0119H
	DD	0e00af00cH
	DD	060077008H
	DD	05006H
	DD	imagerel __GSHandlerCheck
	DD	013e0H
xdata	ENDS
;	COMDAT xdata
xdata	SEGMENT
$chain$3$?VmFoldTable@@YAXPEAU_VM_ASSEMBLER@@@Z DD 021H
	DD	imagerel $LN75
	DD	imagerel $LN75+86
	DD	imagerel $unwind$?VmFoldTable@@YAXPEAU_VM_ASSEMBLER@@@Z
xdata	ENDS
;	COMDAT xdata
xdata	SEGMENT
$chain$2$?VmFoldTable@@YAXPEAU_VM_ASSEMBLER@@@Z DD 061821H
	DD	0283f418H
	DD	02825410H
	DD	02813408H
	DD	imagerel $LN75
	DD	imagerel $LN75+86
	DD	imagerel $unwind$?VmFoldTable@@YAXPEAU_VM_ASSEMBLER@@@Z
xdata	ENDS
;	COMDAT xdata
xdata	SEGMENT
$unwind$?VmFoldTable@@YAXPEAU_VM_ASSEMBLER@@@Z DD 052419H
	DD	027c0112H
	DD	07003e005H
	DD	06002H
	DD	imagerel __GSHandlerCheck
	DD	013d0H
xdata	ENDS
;	COMDAT xdata
xdata	SEGMENT
$unwind$?VmShuffleUsedHandlerOder@@YAXPEAU_VM_ASSEMBLER@@@Z DD 032119H
	DD	027c010fH
	DD	03002H
	DD	imagerel __GSHandlerCheck
	DD	013d0H
xdata	ENDS
;	COMDAT xdata
xdata	SEGMENT
$chain$3$?VmAppendJumpsToUsed@@YAXPEAU_VM_ASSEMBLER@@@Z DD 021H
	DD	imagerel $LN18
	DD	imagerel $LN18+29
	DD	imagerel $unwind$?VmAppendJumpsToUsed@@YAXPEAU_VM_ASSEMBLER@@@Z
xdata	ENDS
;	COMDAT xdata
xdata	SEGMENT
$chain$2$?VmAppendJumpsToUsed@@YAXPEAU_VM_ASSEMBLER@@@Z DD 061921H
	DD	08e419H
	DD	07540aH
	DD	063405H
	DD	imagerel $LN18
	DD	imagerel $LN18+29
	DD	imagerel $unwind$?VmAppendJumpsToUsed@@YAXPEAU_VM_ASSEMBLER@@@Z
xdata	ENDS
;	COMDAT xdata
xdata	SEGMENT
$unwind$?VmAppendJumpsToUsed@@YAXPEAU_VM_ASSEMBLER@@@Z DD 040a01H
	DD	09640aH
	DD	07006320aH
xdata	ENDS
;	COMDAT xdata
xdata	SEGMENT
$ip2state$?VmLoadFile@@YAHPEAU_VM_ASSEMBLER@@AEBV?$basic_string@DU?$char_traits@D@std@@V?$allocator@D@2@@std@@@Z DB 016H
	DB	09H, 02H
	DB	00H
	DB	092H
	DB	02H
	DB	0d8H
	DB	04H
	DB	019H, 05H
	DB	06H
	DB	0c5H, 03H
	DB	04H
	DB	','
	DB	08H
	DB	'u', 03H
	DB	0cH
	DB	0f5H, 03H
	DB	04H
	DB	'9', 05H
	DB	02H
	DB	'Z'
	DB	00H
	DB	0deH
	DB	06H
xdata	ENDS
;	COMDAT xdata
xdata	SEGMENT
$stateUnwindMap$?VmLoadFile@@YAHPEAU_VM_ASSEMBLER@@AEBV?$basic_string@DU?$char_traits@D@std@@V?$allocator@D@2@@std@@@Z DB 0cH
	DB	0aH
	DD	imagerel ??_D?$basic_ifstream@DU?$char_traits@D@std@@@std@@QEAAXXZ
	DB	0a0H
	DB	032H
	DD	imagerel ??1?$basic_string@DU?$char_traits@D@std@@V?$allocator@D@2@@std@@QEAA@XZ
	DB	081H
	DB	05H
	DB	03eH
	DD	imagerel __std_terminate
	DB	062H
	DD	imagerel ??1?$basic_string@DU?$char_traits@D@std@@V?$allocator@D@2@@std@@QEAA@XZ
	DB	060H
	DB	032H
	DD	imagerel ??1?$vector@V?$basic_string@DU?$char_traits@D@std@@V?$allocator@D@2@@std@@V?$allocator@V?$basic_string@DU?$char_traits@D@std@@V?$allocator@D@2@@std@@@2@@std@@QEAA@XZ
	DB	01H
	DB	06H
	DB	0caH
	DD	imagerel ??1?$vector@V?$basic_string@DU?$char_traits@D@std@@V?$allocator@D@2@@std@@V?$allocator@V?$basic_string@DU?$char_traits@D@std@@V?$allocator@D@2@@std@@@2@@std@@QEAA@XZ
	DB	01H
	DB	06H
xdata	ENDS
;	COMDAT xdata
xdata	SEGMENT
$cppxdata$?VmLoadFile@@YAHPEAU_VM_ASSEMBLER@@AEBV?$basic_string@DU?$char_traits@D@std@@V?$allocator@D@2@@std@@@Z DB 028H
	DD	imagerel $stateUnwindMap$?VmLoadFile@@YAHPEAU_VM_ASSEMBLER@@AEBV?$basic_string@DU?$char_traits@D@std@@V?$allocator@D@2@@std@@@Z
	DD	imagerel $ip2state$?VmLoadFile@@YAHPEAU_VM_ASSEMBLER@@AEBV?$basic_string@DU?$char_traits@D@std@@V?$allocator@D@2@@std@@@Z
xdata	ENDS
;	COMDAT xdata
xdata	SEGMENT
$unwind$?VmLoadFile@@YAHPEAU_VM_ASSEMBLER@@AEBV?$basic_string@DU?$char_traits@D@std@@V?$allocator@D@2@@std@@@Z DD 0b3219H
	DD	03d6421H
	DD	03c3421H
	DD	0340121H
	DD	0e010f012H
	DD	0700cc00eH
	DD	0500bH
	DD	imagerel __GSHandlerCheck_EH4
	DD	imagerel $cppxdata$?VmLoadFile@@YAHPEAU_VM_ASSEMBLER@@AEBV?$basic_string@DU?$char_traits@D@std@@V?$allocator@D@2@@std@@@Z
	DD	019aH
xdata	ENDS
;	COMDAT xdata
xdata	SEGMENT
$unwind$?VmAddInstruction@@YAHPEAU_VM_ASSEMBLER@@AEBV?$vector@V?$basic_string@DU?$char_traits@D@std@@V?$allocator@D@2@@std@@V?$allocator@V?$basic_string@DU?$char_traits@D@std@@V?$allocator@D@2@@std@@@2@@std@@@Z DD 0d5d01H
	DD	04f45dH
	DD	0cd458H
	DD	0b744fH
	DD	0a5447H
	DD	0e007420bH
	DD	06003c005H
	DD	03002H
xdata	ENDS
;	COMDAT xdata
xdata	SEGMENT
$chain$0$?VmLoadDefaultInstructions@@YAXPEAU_VM_ASSEMBLER@@@Z DD 020421H
	DD	010a7404H
	DD	imagerel $LN21
	DD	imagerel $LN21+1618
	DD	imagerel $unwind$?VmLoadDefaultInstructions@@YAXPEAU_VM_ASSEMBLER@@@Z
xdata	ENDS
;	COMDAT xdata
xdata	SEGMENT
$unwind$?VmLoadDefaultInstructions@@YAXPEAU_VM_ASSEMBLER@@@Z DD 0b2201H
	DD	010c6422H
	DD	010b3422H
	DD	01040122H
	DD	0e012f014H
	DD	0c00ed010H
	DD	0500cH
xdata	ENDS
;	COMDAT xdata
xdata	SEGMENT
$unwind$?VmGetRegisterId@@YAHAEBV?$basic_string@DU?$char_traits@D@std@@V?$allocator@D@2@@std@@PEAE@Z DD 0a1801H
	DD	0a6418H
	DD	095418H
	DD	083418H
	DD	0f0143218H
	DD	07010e012H
xdata	ENDS
;	COMDAT xdata
xdata	SEGMENT
$unwind$?VmGetInstructionId@@YAHAEBV?$basic_string@DU?$char_traits@D@std@@V?$allocator@D@2@@std@@PEAE@Z DD 0a1801H
	DD	0a6418H
	DD	095418H
	DD	083418H
	DD	0f0143218H
	DD	07010e012H
xdata	ENDS
;	COMDAT xdata
xdata	SEGMENT
$unwind$?dtor$0@?0??VmTokenizeLine@@YA?AV?$vector@V?$basic_string@DU?$char_traits@D@std@@V?$allocator@D@2@@std@@V?$allocator@V?$basic_string@DU?$char_traits@D@std@@V?$allocator@D@2@@std@@@2@@std@@AEBV?$basic_string@DU?$char_traits@D@std@@V?$allocator@D@2@@2@0@Z@4HA DD 020601H
	DD	050023206H
xdata	ENDS
;	COMDAT xdata
xdata	SEGMENT
$ip2state$?VmTokenizeLine@@YA?AV?$vector@V?$basic_string@DU?$char_traits@D@std@@V?$allocator@D@2@@std@@V?$allocator@V?$basic_string@DU?$char_traits@D@std@@V?$allocator@D@2@@std@@@2@@std@@AEBV?$basic_string@DU?$char_traits@D@std@@V?$allocator@D@2@@2@0@Z DB 06H
	DB	'-', 05H
	DB	02H
	DB	'R'
	DB	04H
	DB	'P'
	DB	02H
xdata	ENDS
;	COMDAT xdata
xdata	SEGMENT
$stateUnwindMap$?VmTokenizeLine@@YA?AV?$vector@V?$basic_string@DU?$char_traits@D@std@@V?$allocator@D@2@@std@@V?$allocator@V?$basic_string@DU?$char_traits@D@std@@V?$allocator@D@2@@std@@@2@@std@@AEBV?$basic_string@DU?$char_traits@D@std@@V?$allocator@D@2@@2@0@Z DB 04H
	DB	0eH
	DD	imagerel ?dtor$0@?0??VmTokenizeLine@@YA?AV?$vector@V?$basic_string@DU?$char_traits@D@std@@V?$allocator@D@2@@std@@V?$allocator@V?$basic_string@DU?$char_traits@D@std@@V?$allocator@D@2@@std@@@2@@std@@AEBV?$basic_string@DU?$char_traits@D@std@@V?$allocator@D@2@@2@0@Z@4HA
	DB	02aH
	DD	imagerel ??1?$basic_string@DU?$char_traits@D@std@@V?$allocator@D@2@@std@@QEAA@XZ
	DB	080H
xdata	ENDS
;	COMDAT xdata
xdata	SEGMENT
$cppxdata$?VmTokenizeLine@@YA?AV?$vector@V?$basic_string@DU?$char_traits@D@std@@V?$allocator@D@2@@std@@V?$allocator@V?$basic_string@DU?$char_traits@D@std@@V?$allocator@D@2@@std@@@2@@std@@AEBV?$basic_string@DU?$char_traits@D@std@@V?$allocator@D@2@@2@0@Z DB 028H
	DD	imagerel $stateUnwindMap$?VmTokenizeLine@@YA?AV?$vector@V?$basic_string@DU?$char_traits@D@std@@V?$allocator@D@2@@std@@V?$allocator@V?$basic_string@DU?$char_traits@D@std@@V?$allocator@D@2@@std@@@2@@std@@AEBV?$basic_string@DU?$char_traits@D@std@@V?$allocator@D@2@@2@0@Z
	DD	imagerel $ip2state$?VmTokenizeLine@@YA?AV?$vector@V?$basic_string@DU?$char_traits@D@std@@V?$allocator@D@2@@std@@V?$allocator@V?$basic_string@DU?$char_traits@D@std@@V?$allocator@D@2@@std@@@2@@std@@AEBV?$basic_string@DU?$char_traits@D@std@@V?$allocator@D@2@@2@0@Z
xdata	ENDS
;	COMDAT xdata
xdata	SEGMENT
$unwind$?VmTokenizeLine@@YA?AV?$vector@V?$basic_string@DU?$char_traits@D@std@@V?$allocator@D@2@@std@@V?$allocator@V?$basic_string@DU?$char_traits@D@std@@V?$allocator@D@2@@std@@@2@@std@@AEBV?$basic_string@DU?$char_traits@D@std@@V?$allocator@D@2@@2@0@Z DD 0a2319H
	DD	0193414H
	DD	0f010d214H
	DD	0d00ce00eH
	DD	07008c00aH
	DD	050066007H
	DD	imagerel __GSHandlerCheck_EH4
	DD	imagerel $cppxdata$?VmTokenizeLine@@YA?AV?$vector@V?$basic_string@DU?$char_traits@D@std@@V?$allocator@D@2@@std@@V?$allocator@V?$basic_string@DU?$char_traits@D@std@@V?$allocator@D@2@@std@@@2@@std@@AEBV?$basic_string@DU?$char_traits@D@std@@V?$allocator@D@2@@2@0@Z
	DD	062H
xdata	ENDS
;	COMDAT xdata
xdata	SEGMENT
$unwind$?_Xlength@?$vector@PEAU_VM_INSTRUCTION@@V?$allocator@PEAU_VM_INSTRUCTION@@@std@@@std@@CAXXZ DD 010401H
	DD	04204H
xdata	ENDS
;	COMDAT xdata
xdata	SEGMENT
$unwind$?_Change_array@?$vector@PEAU_VM_INSTRUCTION@@V?$allocator@PEAU_VM_INSTRUCTION@@@std@@@std@@AEAAXQEAPEAU_VM_INSTRUCTION@@_K1@Z DD 081401H
	DD	096414H
	DD	085414H
	DD	073414H
	DD	070103214H
xdata	ENDS
;	COMDAT xdata
xdata	SEGMENT
$unwind$?_Umove@?$vector@PEAU_VM_INSTRUCTION@@V?$allocator@PEAU_VM_INSTRUCTION@@@std@@@std@@AEAAPEAPEAU_VM_INSTRUCTION@@PEAPEAU3@00@Z DD 040a01H
	DD	06340aH
	DD	07006320aH
xdata	ENDS
;	COMDAT xdata
xdata	SEGMENT
$unwind$?allocate@?$allocator@PEAU_VM_INSTRUCTION@@@std@@QEAAPEAPEAU_VM_INSTRUCTION@@_K@Z DD 010401H
	DD	04204H
xdata	ENDS
;	COMDAT xdata
xdata	SEGMENT
$unwind$?deallocate@?$allocator@PEAU_VM_INSTRUCTION@@@std@@QEAAXQEAPEAU_VM_INSTRUCTION@@_K@Z DD 010401H
	DD	04204H
xdata	ENDS
;	COMDAT xdata
xdata	SEGMENT
$unwind$?_Xlength@?$vector@EV?$allocator@E@std@@@std@@CAXXZ DD 010401H
	DD	04204H
xdata	ENDS
;	COMDAT xdata
xdata	SEGMENT
$unwind$?_Change_array@?$vector@EV?$allocator@E@std@@@std@@AEAAXQEAE_K1@Z DD 081401H
	DD	096414H
	DD	085414H
	DD	073414H
	DD	070103214H
xdata	ENDS
;	COMDAT xdata
xdata	SEGMENT
$unwind$?_Umove@?$vector@EV?$allocator@E@std@@@std@@AEAAPEAEPEAE00@Z DD 040801H
	DD	070043208H
	DD	030026003H
xdata	ENDS
;	COMDAT xdata
xdata	SEGMENT
$unwind$?allocate@?$allocator@E@std@@QEAAPEAE_K@Z DD 010401H
	DD	04204H
xdata	ENDS
;	COMDAT xdata
xdata	SEGMENT
$unwind$?deallocate@?$allocator@E@std@@QEAAXQEAE_K@Z DD 010401H
	DD	04204H
xdata	ENDS
;	COMDAT xdata
xdata	SEGMENT
$unwind$??_G_CODE_LINK@@QEAAPEAXI@Z DD 040a01H
	DD	07340aH
	DD	07006320aH
xdata	ENDS
;	COMDAT xdata
xdata	SEGMENT
$unwind$??1_CODE_LINK@@QEAA@XZ DD 020601H
	DD	030023206H
xdata	ENDS
;	COMDAT xdata
xdata	SEGMENT
$unwind$??$_Ungetc@D@std@@YA_NAEBDPEAU_iobuf@@@Z DD 010401H
	DD	04204H
xdata	ENDS
;	COMDAT xdata
xdata	SEGMENT
$unwind$??$_Fputc@D@std@@YA_NDPEAU_iobuf@@@Z DD 010401H
	DD	04204H
xdata	ENDS
;	COMDAT xdata
xdata	SEGMENT
$unwind$??$_Fgetc@D@std@@YA_NAEADPEAU_iobuf@@@Z DD 020601H
	DD	030023206H
xdata	ENDS
;	COMDAT xdata
xdata	SEGMENT
$unwind$?_Getfacet@locale@std@@QEBAPEBVfacet@12@_K@Z DD 020601H
	DD	030023206H
xdata	ENDS
;	COMDAT xdata
xdata	SEGMENT
$unwind$??1locale@std@@QEAA@XZ DD 010401H
	DD	04204H
xdata	ENDS
;	COMDAT xdata
xdata	SEGMENT
$unwind$?_Throw_bad_cast@std@@YAXXZ DD 010401H
	DD	08204H
xdata	ENDS
;	COMDAT xdata
xdata	SEGMENT
$unwind$??_Gbad_cast@std@@UEAAPEAXI@Z DD 040a01H
	DD	06340aH
	DD	07006320aH
xdata	ENDS
;	COMDAT xdata
xdata	SEGMENT
$unwind$??0bad_cast@std@@QEAA@AEBV01@@Z DD 020601H
	DD	030023206H
xdata	ENDS
;	COMDAT xdata
xdata	SEGMENT
$unwind$?stoi@std@@YAHAEBV?$basic_string@DU?$char_traits@D@std@@V?$allocator@D@2@@1@PEA_KH@Z DD 061b19H
	DD	0d340cH
	DD	07008520cH
	DD	050066007H
	DD	imagerel __GSHandlerCheck
	DD	028H
xdata	ENDS
;	COMDAT xdata
xdata	SEGMENT
$unwind$??_G?$basic_string@DU?$char_traits@D@std@@V?$allocator@D@2@@std@@QEAAPEAXI@Z DD 040a01H
	DD	07340aH
	DD	07006320aH
xdata	ENDS
;	COMDAT xdata
xdata	SEGMENT
$unwind$?_Tidy_deallocate@?$basic_string@DU?$char_traits@D@std@@V?$allocator@D@2@@std@@AEAAXXZ DD 020601H
	DD	030023206H
xdata	ENDS
;	COMDAT xdata
xdata	SEGMENT
$unwind$?_Equal@?$basic_string@DU?$char_traits@D@std@@V?$allocator@D@2@@std@@QEBA_NQEBD@Z DD 010401H
	DD	04204H
xdata	ENDS
;	COMDAT xdata
xdata	SEGMENT
$unwind$?_Equal@?$basic_string@DU?$char_traits@D@std@@V?$allocator@D@2@@std@@QEBA_NAEBV12@@Z DD 010401H
	DD	04204H
xdata	ENDS
;	COMDAT xdata
xdata	SEGMENT
$unwind$?substr@?$basic_string@DU?$char_traits@D@std@@V?$allocator@D@2@@std@@QEBA?AV12@_K0@Z DD 020601H
	DD	030025206H
xdata	ENDS
;	COMDAT xdata
xdata	SEGMENT
$chain$5$?find@?$basic_string@DU?$char_traits@D@std@@V?$allocator@D@2@@std@@QEBA_KAEBV12@_K@Z DD 021H
	DD	imagerel $LN38
	DD	imagerel $LN38+81
	DD	imagerel $unwind$?find@?$basic_string@DU?$char_traits@D@std@@V?$allocator@D@2@@std@@QEBA_KAEBV12@_K@Z
xdata	ENDS
;	COMDAT xdata
xdata	SEGMENT
$chain$4$?find@?$basic_string@DU?$char_traits@D@std@@V?$allocator@D@2@@std@@QEBA_KAEBV12@_K@Z DD 060021H
	DD	0af400H
	DD	095400H
	DD	083400H
	DD	imagerel $LN38
	DD	imagerel $LN38+81
	DD	imagerel $unwind$?find@?$basic_string@DU?$char_traits@D@std@@V?$allocator@D@2@@std@@QEBA_KAEBV12@_K@Z
xdata	ENDS
;	COMDAT xdata
xdata	SEGMENT
$chain$2$?find@?$basic_string@DU?$char_traits@D@std@@V?$allocator@D@2@@std@@QEBA_KAEBV12@_K@Z DD 061721H
	DD	0af417H
	DD	09540aH
	DD	083405H
	DD	imagerel $LN38
	DD	imagerel $LN38+81
	DD	imagerel $unwind$?find@?$basic_string@DU?$char_traits@D@std@@V?$allocator@D@2@@std@@QEBA_KAEBV12@_K@Z
xdata	ENDS
;	COMDAT xdata
xdata	SEGMENT
$unwind$?find@?$basic_string@DU?$char_traits@D@std@@V?$allocator@D@2@@std@@QEBA_KAEBV12@_K@Z DD 040901H
	DD	0e0053209H
	DD	060027003H
xdata	ENDS
;	COMDAT xdata
xdata	SEGMENT
$ip2state$?erase@?$basic_string@DU?$char_traits@D@std@@V?$allocator@D@2@@std@@QEAA?AV?$_String_iterator@V?$_String_val@U?$_Simple_types@D@std@@@std@@@2@V?$_String_const_iterator@V?$_String_val@U?$_Simple_types@D@std@@@std@@@2@@Z DB 02H
	DB	'=', 02H
	DB	00H
xdata	ENDS
;	COMDAT xdata
xdata	SEGMENT
$cppxdata$?erase@?$basic_string@DU?$char_traits@D@std@@V?$allocator@D@2@@std@@QEAA?AV?$_String_iterator@V?$_String_val@U?$_Simple_types@D@std@@@std@@@2@V?$_String_const_iterator@V?$_String_val@U?$_Simple_types@D@std@@@std@@@2@@Z DB 060H
	DD	imagerel $ip2state$?erase@?$basic_string@DU?$char_traits@D@std@@V?$allocator@D@2@@std@@QEAA?AV?$_String_iterator@V?$_String_val@U?$_Simple_types@D@std@@@std@@@2@V?$_String_const_iterator@V?$_String_val@U?$_Simple_types@D@std@@@std@@@2@@Z
xdata	ENDS
;	COMDAT xdata
xdata	SEGMENT
$unwind$?erase@?$basic_string@DU?$char_traits@D@std@@V?$allocator@D@2@@std@@QEAA?AV?$_String_iterator@V?$_String_val@U?$_Simple_types@D@std@@@std@@@2@V?$_String_const_iterator@V?$_String_val@U?$_Simple_types@D@std@@@std@@@2@@Z DD 060f19H
	DD	09640fH
	DD	08340fH
	DD	0700b320fH
	DD	imagerel __CxxFrameHandler4
	DD	imagerel $cppxdata$?erase@?$basic_string@DU?$char_traits@D@std@@V?$allocator@D@2@@std@@QEAA?AV?$_String_iterator@V?$_String_val@U?$_Simple_types@D@std@@@std@@@2@V?$_String_const_iterator@V?$_String_val@U?$_Simple_types@D@std@@@std@@@2@@Z
xdata	ENDS
;	COMDAT xdata
xdata	SEGMENT
$unwind$?erase@?$basic_string@DU?$char_traits@D@std@@V?$allocator@D@2@@std@@QEAAAEAV12@_K_K@Z DD 020601H
	DD	030023206H
xdata	ENDS
;	COMDAT xdata
xdata	SEGMENT
$unwind$?erase@?$basic_string@DU?$char_traits@D@std@@V?$allocator@D@2@@std@@QEAAAEAV12@_K@Z DD 010401H
	DD	04204H
xdata	ENDS
;	COMDAT xdata
xdata	SEGMENT
$chain$3$?assign@?$basic_string@DU?$char_traits@D@std@@V?$allocator@D@2@@std@@QEAAAEAV12@QEBD_K@Z DD 021H
	DD	imagerel $LN77
	DD	imagerel $LN77+139
	DD	imagerel $unwind$?assign@?$basic_string@DU?$char_traits@D@std@@V?$allocator@D@2@@std@@QEAAAEAV12@QEBD_K@Z
xdata	ENDS
;	COMDAT xdata
xdata	SEGMENT
$chain$2$?assign@?$basic_string@DU?$char_traits@D@std@@V?$allocator@D@2@@std@@QEAAAEAV12@QEBD_K@Z DD 020021H
	DD	0d6400H
	DD	imagerel $LN77
	DD	imagerel $LN77+139
	DD	imagerel $unwind$?assign@?$basic_string@DU?$char_traits@D@std@@V?$allocator@D@2@@std@@QEAAAEAV12@QEBD_K@Z
xdata	ENDS
;	COMDAT xdata
xdata	SEGMENT
$chain$0$?assign@?$basic_string@DU?$char_traits@D@std@@V?$allocator@D@2@@std@@QEAAAEAV12@QEBD_K@Z DD 020521H
	DD	0d6405H
	DD	imagerel $LN77
	DD	imagerel $LN77+139
	DD	imagerel $unwind$?assign@?$basic_string@DU?$char_traits@D@std@@V?$allocator@D@2@@std@@QEAAAEAV12@QEBD_K@Z
xdata	ENDS
;	COMDAT xdata
xdata	SEGMENT
$unwind$?assign@?$basic_string@DU?$char_traits@D@std@@V?$allocator@D@2@@std@@QEAAAEAV12@QEBD_K@Z DD 060c01H
	DD	0f008320cH
	DD	07004e006H
	DD	030025003H
xdata	ENDS
;	COMDAT xdata
xdata	SEGMENT
$unwind$?assign@?$basic_string@DU?$char_traits@D@std@@V?$allocator@D@2@@std@@QEAAAEAV12@AEBV12@_K_K@Z DD 010401H
	DD	04204H
xdata	ENDS
;	COMDAT xdata
xdata	SEGMENT
$unwind$??Y?$basic_string@DU?$char_traits@D@std@@V?$allocator@D@2@@std@@QEAAAEAV01@D@Z DD 020601H
	DD	030023206H
xdata	ENDS
;	COMDAT xdata
xdata	SEGMENT
$unwind$??4?$basic_string@DU?$char_traits@D@std@@V?$allocator@D@2@@std@@QEAAAEAV01@AEBV01@@Z DD 020601H
	DD	030023206H
xdata	ENDS
;	COMDAT xdata
xdata	SEGMENT
$unwind$??1?$basic_string@DU?$char_traits@D@std@@V?$allocator@D@2@@std@@QEAA@XZ DD 020601H
	DD	030023206H
xdata	ENDS
;	COMDAT xdata
xdata	SEGMENT
$unwind$?_Construct_lv_contents@?$basic_string@DU?$char_traits@D@std@@V?$allocator@D@2@@std@@AEAAXAEBV12@@Z DD 085001H
	DD	065450H
	DD	08640fH
	DD	07340fH
	DD	0700b320fH
xdata	ENDS
;	COMDAT xdata
xdata	SEGMENT
$unwind$??0?$basic_string@DU?$char_traits@D@std@@V?$allocator@D@2@@std@@QEAA@QEBD@Z DD 020601H
	DD	030023206H
xdata	ENDS
;	COMDAT xdata
xdata	SEGMENT
$unwind$??0?$basic_string@DU?$char_traits@D@std@@V?$allocator@D@2@@std@@QEAA@AEBV01@_K1AEBV?$allocator@D@1@@Z DD 020601H
	DD	030023206H
xdata	ENDS
;	COMDAT xdata
xdata	SEGMENT
$unwind$??0?$basic_string@DU?$char_traits@D@std@@V?$allocator@D@2@@std@@QEAA@AEBV01@@Z DD 083201H
	DD	066432H
	DD	08540fH
	DD	07340fH
	DD	0700b320fH
xdata	ENDS
;	COMDAT xdata
xdata	SEGMENT
$unwind$?_Xran@?$_String_val@U?$_Simple_types@D@std@@@std@@SAXXZ DD 010401H
	DD	04204H
xdata	ENDS
;	COMDAT xdata
xdata	SEGMENT
$unwind$?_Check_offset@?$_String_val@U?$_Simple_types@D@std@@@std@@QEBAX_K@Z DD 010401H
	DD	04204H
xdata	ENDS
;	COMDAT xdata
xdata	SEGMENT
$unwind$?_Xlen_string@std@@YAXXZ DD 010401H
	DD	04204H
xdata	ENDS
;	COMDAT xdata
xdata	SEGMENT
$unwind$?copy@?$_Narrow_char_traits@DH@std@@SAPEADQEADQEBD_K@Z DD 020601H
	DD	030023206H
xdata	ENDS
;	COMDAT xdata
xdata	SEGMENT
$unwind$?allocate@?$allocator@D@std@@QEAAPEAD_K@Z DD 010401H
	DD	04204H
xdata	ENDS
;	COMDAT xdata
xdata	SEGMENT
$unwind$?deallocate@?$allocator@D@std@@QEAAXQEAD_K@Z DD 010401H
	DD	04204H
xdata	ENDS
;	COMDAT xdata
xdata	SEGMENT
$unwind$?_Adjust_manually_vector_aligned@std@@YAXAEAPEAXAEA_K@Z DD 010401H
	DD	04204H
xdata	ENDS
;	COMDAT xdata
xdata	SEGMENT
$unwind$?_Throw_bad_array_new_length@std@@YAXXZ DD 010401H
	DD	08204H
xdata	ENDS
;	COMDAT xdata
xdata	SEGMENT
$unwind$??_Gbad_array_new_length@std@@UEAAPEAXI@Z DD 040a01H
	DD	06340aH
	DD	07006320aH
xdata	ENDS
;	COMDAT xdata
xdata	SEGMENT
$unwind$??0bad_array_new_length@std@@QEAA@AEBV01@@Z DD 020601H
	DD	030023206H
xdata	ENDS
;	COMDAT xdata
xdata	SEGMENT
$unwind$??_Gbad_alloc@std@@UEAAPEAXI@Z DD 040a01H
	DD	06340aH
	DD	07006320aH
xdata	ENDS
;	COMDAT xdata
xdata	SEGMENT
$unwind$??0bad_alloc@std@@QEAA@AEBV01@@Z DD 020601H
	DD	030023206H
xdata	ENDS
;	COMDAT xdata
xdata	SEGMENT
$unwind$??_Gexception@std@@UEAAPEAXI@Z DD 040a01H
	DD	06340aH
	DD	07006320aH
xdata	ENDS
;	COMDAT xdata
xdata	SEGMENT
$unwind$??0exception@std@@QEAA@AEBV01@@Z DD 020601H
	DD	030023206H
xdata	ENDS
;	COMDAT xdata
xdata	SEGMENT
$unwind$printf DD 031a01H
	DD	07016621aH
	DD	03015H
xdata	ENDS
;	COMDAT xdata
xdata	SEGMENT
$unwind$_vfprintf_l DD 081401H
	DD	0a6414H
	DD	095414H
	DD	083414H
	DD	070105214H
xdata	ENDS
; Function compile flags: /Odspy
;	COMDAT ??_E?$basic_ifstream@DU?$char_traits@D@std@@@std@@$4PPPPPPPM@A@EAAPEAXI@Z
_TEXT	SEGMENT
??_E?$basic_ifstream@DU?$char_traits@D@std@@@std@@$4PPPPPPPM@A@EAAPEAXI@Z PROC ; std::basic_ifstream<char,std::char_traits<char> >::`vector deleting destructor', COMDAT
  00000	48 63 41 fc	 movsxd	 rax, DWORD PTR [rcx-4]
  00004	48 2b c8	 sub	 rcx, rax
  00007	e9 00 00 00 00	 jmp	 ??_E?$basic_ifstream@DU?$char_traits@D@std@@@std@@UEAAPEAXI@Z
??_E?$basic_ifstream@DU?$char_traits@D@std@@@std@@$4PPPPPPPM@A@EAAPEAXI@Z ENDP ; std::basic_ifstream<char,std::char_traits<char> >::`vector deleting destructor'
_TEXT	ENDS
; Function compile flags: /Ogtpy
; File C:\Program Files (x86)\Microsoft Visual Studio\2019\Community\VC\Tools\MSVC\14.27.29110\include\xmemory
;	COMDAT ??$_Refancy@PEBD$0A@@std@@YAPEBDPEBD@Z
_TEXT	SEGMENT
_Ptr$ = 8
??$_Refancy@PEBD$0A@@std@@YAPEBDPEBD@Z PROC		; std::_Refancy<char const *,0>, COMDAT

; 262  :     return _Ptr;

  00000	48 8b c1	 mov	 rax, rcx

; 263  : }

  00003	c3		 ret	 0
??$_Refancy@PEBD$0A@@std@@YAPEBDPEBD@Z ENDP		; std::_Refancy<char const *,0>
_TEXT	ENDS
; Function compile flags: /Ogtpy
; File C:\Program Files (x86)\Microsoft Visual Studio\2019\Community\VC\Tools\MSVC\14.27.29110\include\xutility
;	COMDAT ??$_Copy_memmove@PEAEPEAE@std@@YAPEAEPEAE00@Z
_TEXT	SEGMENT
_First$ = 48
_Last$ = 56
_Dest$ = 64
??$_Copy_memmove@PEAEPEAE@std@@YAPEAEPEAE00@Z PROC	; std::_Copy_memmove<unsigned char *,unsigned char *>, COMDAT

; 4113 : _OutIt _Copy_memmove(_InIt _First, _InIt _Last, _OutIt _Dest) {

$LN4:
  00000	48 89 5c 24 08	 mov	 QWORD PTR [rsp+8], rbx
  00005	57		 push	 rdi
  00006	48 83 ec 20	 sub	 rsp, 32			; 00000020H
  0000a	48 8b da	 mov	 rbx, rdx
  0000d	49 8b f8	 mov	 rdi, r8

; 4114 :     const char* const _First_ch = const_cast<const char*>(reinterpret_cast<const volatile char*>(_First));
; 4115 :     const char* const _Last_ch  = const_cast<const char*>(reinterpret_cast<const volatile char*>(_Last));
; 4116 :     char* const _Dest_ch        = const_cast<char*>(reinterpret_cast<volatile char*>(_Dest));
; 4117 :     const auto _Count           = static_cast<size_t>(_Last_ch - _First_ch);

  00010	48 2b d9	 sub	 rbx, rcx

; 4118 :     _CSTD memmove(_Dest_ch, _First_ch, _Count);

  00013	48 8b d1	 mov	 rdx, rcx
  00016	4c 8b c3	 mov	 r8, rbx
  00019	48 8b cf	 mov	 rcx, rdi
  0001c	e8 00 00 00 00	 call	 memmove

; 4119 :     return reinterpret_cast<_OutIt>(_Dest_ch + _Count);

  00021	48 8d 04 3b	 lea	 rax, QWORD PTR [rbx+rdi]

; 4120 : }

  00025	48 8b 5c 24 30	 mov	 rbx, QWORD PTR [rsp+48]
  0002a	48 83 c4 20	 add	 rsp, 32			; 00000020H
  0002e	5f		 pop	 rdi
  0002f	c3		 ret	 0
??$_Copy_memmove@PEAEPEAE@std@@YAPEAEPEAE00@Z ENDP	; std::_Copy_memmove<unsigned char *,unsigned char *>
_TEXT	ENDS
; Function compile flags: /Ogtpy
; File C:\Program Files (x86)\Microsoft Visual Studio\2019\Community\VC\Tools\MSVC\14.27.29110\include\xutility
;	COMDAT ??$_Copy_memmove@PEAPEAU_VM_INSTRUCTION@@PEAPEAU1@@std@@YAPEAPEAU_VM_INSTRUCTION@@PEAPEAU1@00@Z
_TEXT	SEGMENT
_First$ = 48
_Last$ = 56
_Dest$ = 64
??$_Copy_memmove@PEAPEAU_VM_INSTRUCTION@@PEAPEAU1@@std@@YAPEAPEAU_VM_INSTRUCTION@@PEAPEAU1@00@Z PROC ; std::_Copy_memmove<_VM_INSTRUCTION * *,_VM_INSTRUCTION * *>, COMDAT

; 4113 : _OutIt _Copy_memmove(_InIt _First, _InIt _Last, _OutIt _Dest) {

$LN4:
  00000	48 89 5c 24 08	 mov	 QWORD PTR [rsp+8], rbx
  00005	57		 push	 rdi
  00006	48 83 ec 20	 sub	 rsp, 32			; 00000020H
  0000a	48 8b da	 mov	 rbx, rdx
  0000d	49 8b f8	 mov	 rdi, r8

; 4114 :     const char* const _First_ch = const_cast<const char*>(reinterpret_cast<const volatile char*>(_First));
; 4115 :     const char* const _Last_ch  = const_cast<const char*>(reinterpret_cast<const volatile char*>(_Last));
; 4116 :     char* const _Dest_ch        = const_cast<char*>(reinterpret_cast<volatile char*>(_Dest));
; 4117 :     const auto _Count           = static_cast<size_t>(_Last_ch - _First_ch);

  00010	48 2b d9	 sub	 rbx, rcx

; 4118 :     _CSTD memmove(_Dest_ch, _First_ch, _Count);

  00013	48 8b d1	 mov	 rdx, rcx
  00016	4c 8b c3	 mov	 r8, rbx
  00019	48 8b cf	 mov	 rcx, rdi
  0001c	e8 00 00 00 00	 call	 memmove

; 4119 :     return reinterpret_cast<_OutIt>(_Dest_ch + _Count);

  00021	48 8d 04 3b	 lea	 rax, QWORD PTR [rbx+rdi]

; 4120 : }

  00025	48 8b 5c 24 30	 mov	 rbx, QWORD PTR [rsp+48]
  0002a	48 83 c4 20	 add	 rsp, 32			; 00000020H
  0002e	5f		 pop	 rdi
  0002f	c3		 ret	 0
??$_Copy_memmove@PEAPEAU_VM_INSTRUCTION@@PEAPEAU1@@std@@YAPEAPEAU_VM_INSTRUCTION@@PEAPEAU1@00@Z ENDP ; std::_Copy_memmove<_VM_INSTRUCTION * *,_VM_INSTRUCTION * *>
_TEXT	ENDS
; Function compile flags: /Ogtpy
; File C:\Program Files (x86)\Microsoft Visual Studio\2019\Community\VC\Tools\MSVC\14.27.29110\include\xutility
;	COMDAT ??$_Copy_memmove@PEAU_VM_SYMBOL@@PEAU1@@std@@YAPEAU_VM_SYMBOL@@PEAU1@00@Z
_TEXT	SEGMENT
_First$ = 48
_Last$ = 56
_Dest$ = 64
??$_Copy_memmove@PEAU_VM_SYMBOL@@PEAU1@@std@@YAPEAU_VM_SYMBOL@@PEAU1@00@Z PROC ; std::_Copy_memmove<_VM_SYMBOL *,_VM_SYMBOL *>, COMDAT

; 4113 : _OutIt _Copy_memmove(_InIt _First, _InIt _Last, _OutIt _Dest) {

$LN4:
  00000	48 89 5c 24 08	 mov	 QWORD PTR [rsp+8], rbx
  00005	57		 push	 rdi
  00006	48 83 ec 20	 sub	 rsp, 32			; 00000020H
  0000a	48 8b da	 mov	 rbx, rdx
  0000d	49 8b f8	 mov	 rdi, r8

; 4114 :     const char* const _First_ch = const_cast<const char*>(reinterpret_cast<const volatile char*>(_First));
; 4115 :     const char* const _Last_ch  = const_cast<const char*>(reinterpret_cast<const volatile char*>(_Last));
; 4116 :     char* const _Dest_ch        = const_cast<char*>(reinterpret_cast<volatile char*>(_Dest));
; 4117 :     const auto _Count           = static_cast<size_t>(_Last_ch - _First_ch);

  00010	48 2b d9	 sub	 rbx, rcx

; 4118 :     _CSTD memmove(_Dest_ch, _First_ch, _Count);

  00013	48 8b d1	 mov	 rdx, rcx
  00016	4c 8b c3	 mov	 r8, rbx
  00019	48 8b cf	 mov	 rcx, rdi
  0001c	e8 00 00 00 00	 call	 memmove

; 4119 :     return reinterpret_cast<_OutIt>(_Dest_ch + _Count);

  00021	48 8d 04 3b	 lea	 rax, QWORD PTR [rbx+rdi]

; 4120 : }

  00025	48 8b 5c 24 30	 mov	 rbx, QWORD PTR [rsp+48]
  0002a	48 83 c4 20	 add	 rsp, 32			; 00000020H
  0002e	5f		 pop	 rdi
  0002f	c3		 ret	 0
??$_Copy_memmove@PEAU_VM_SYMBOL@@PEAU1@@std@@YAPEAU_VM_SYMBOL@@PEAU1@00@Z ENDP ; std::_Copy_memmove<_VM_SYMBOL *,_VM_SYMBOL *>
_TEXT	ENDS
; Function compile flags: /Ogtpy
; File C:\Program Files (x86)\Microsoft Visual Studio\2019\Community\VC\Tools\MSVC\14.27.29110\include\istream
; File C:\Program Files (x86)\Microsoft Visual Studio\2019\Community\VC\Tools\MSVC\14.27.29110\include\ios
; File C:\Program Files (x86)\Microsoft Visual Studio\2019\Community\VC\Tools\MSVC\14.27.29110\include\istream
;	COMDAT ??1sentry@?$basic_istream@DU?$char_traits@D@std@@@std@@QEAA@XZ
_TEXT	SEGMENT
this$ = 48
??1sentry@?$basic_istream@DU?$char_traits@D@std@@@std@@QEAA@XZ PROC ; std::basic_istream<char,std::char_traits<char> >::sentry::~sentry, COMDAT
$LN12:
  00000	48 83 ec 28	 sub	 rsp, 40			; 00000028H

; 89   :             const auto _Rdbuf = _Myistr.rdbuf();

  00004	48 8b 11	 mov	 rdx, QWORD PTR [rcx]
  00007	48 8b 02	 mov	 rax, QWORD PTR [rdx]
  0000a	48 63 48 04	 movsxd	 rcx, DWORD PTR [rax+4]
; File C:\Program Files (x86)\Microsoft Visual Studio\2019\Community\VC\Tools\MSVC\14.27.29110\include\ios

; 80   :         return _Mystrbuf;

  0000e	48 8b 4c 11 48	 mov	 rcx, QWORD PTR [rcx+rdx+72]
; File C:\Program Files (x86)\Microsoft Visual Studio\2019\Community\VC\Tools\MSVC\14.27.29110\include\istream

; 90   :             if (_Rdbuf) {

  00013	48 85 c9	 test	 rcx, rcx
  00016	74 07		 je	 SHORT $LN9@sentry

; 91   :                 _Rdbuf->_Unlock();

  00018	48 8b 01	 mov	 rax, QWORD PTR [rcx]
  0001b	ff 50 10	 call	 QWORD PTR [rax+16]
  0001e	90		 npad	 1
$LN9@sentry:
  0001f	48 83 c4 28	 add	 rsp, 40			; 00000028H
  00023	c3		 ret	 0
??1sentry@?$basic_istream@DU?$char_traits@D@std@@@std@@QEAA@XZ ENDP ; std::basic_istream<char,std::char_traits<char> >::sentry::~sentry
_TEXT	ENDS
; Function compile flags: /Ogtpy
; File C:\Program Files (x86)\Microsoft Visual Studio\2019\Community\VC\Tools\MSVC\14.27.29110\include\istream
; File C:\Program Files (x86)\Microsoft Visual Studio\2019\Community\VC\Tools\MSVC\14.27.29110\include\ios
; File C:\Program Files (x86)\Microsoft Visual Studio\2019\Community\VC\Tools\MSVC\14.27.29110\include\istream
;	COMDAT ??1_Sentry_base@?$basic_istream@DU?$char_traits@D@std@@@std@@QEAA@XZ
_TEXT	SEGMENT
this$ = 48
??1_Sentry_base@?$basic_istream@DU?$char_traits@D@std@@@std@@QEAA@XZ PROC ; std::basic_istream<char,std::char_traits<char> >::_Sentry_base::~_Sentry_base, COMDAT

; 88   :         __CLR_OR_THIS_CALL ~_Sentry_base() noexcept {

$LN8:
  00000	48 83 ec 28	 sub	 rsp, 40			; 00000028H

; 89   :             const auto _Rdbuf = _Myistr.rdbuf();

  00004	48 8b 11	 mov	 rdx, QWORD PTR [rcx]
  00007	48 8b 02	 mov	 rax, QWORD PTR [rdx]
  0000a	48 63 48 04	 movsxd	 rcx, DWORD PTR [rax+4]
; File C:\Program Files (x86)\Microsoft Visual Studio\2019\Community\VC\Tools\MSVC\14.27.29110\include\ios

; 80   :         return _Mystrbuf;

  0000e	48 8b 4c 11 48	 mov	 rcx, QWORD PTR [rcx+rdx+72]
; File C:\Program Files (x86)\Microsoft Visual Studio\2019\Community\VC\Tools\MSVC\14.27.29110\include\istream

; 90   :             if (_Rdbuf) {

  00013	48 85 c9	 test	 rcx, rcx
  00016	74 07		 je	 SHORT $LN2@Sentry_bas

; 91   :                 _Rdbuf->_Unlock();

  00018	48 8b 01	 mov	 rax, QWORD PTR [rcx]
  0001b	ff 50 10	 call	 QWORD PTR [rax+16]
  0001e	90		 npad	 1
$LN2@Sentry_bas:

; 92   :             }
; 93   :         }

  0001f	48 83 c4 28	 add	 rsp, 40			; 00000028H
  00023	c3		 ret	 0
??1_Sentry_base@?$basic_istream@DU?$char_traits@D@std@@@std@@QEAA@XZ ENDP ; std::basic_istream<char,std::char_traits<char> >::_Sentry_base::~_Sentry_base
_TEXT	ENDS
; Function compile flags: /Ogtpy
; File C:\Program Files (x86)\Microsoft Visual Studio\2019\Community\VC\Tools\MSVC\14.27.29110\include\xmemory
; File C:\Program Files (x86)\Microsoft Visual Studio\2019\Community\VC\Tools\MSVC\14.27.29110\include\xutility
; File C:\Program Files (x86)\Microsoft Visual Studio\2019\Community\VC\Tools\MSVC\14.27.29110\include\xmemory
; File C:\Program Files (x86)\Microsoft Visual Studio\2019\Community\VC\Tools\MSVC\14.27.29110\include\xutility
; File C:\Program Files (x86)\Microsoft Visual Studio\2019\Community\VC\Tools\MSVC\14.27.29110\include\xmemory
;	COMDAT ??$_Uninitialized_move@PEAEV?$allocator@E@std@@@std@@YAPEAEQEAE0PEAEAEAV?$allocator@E@0@@Z
_TEXT	SEGMENT
_First$ = 64
_Last$ = 72
_Dest$ = 80
_Al$ = 88
??$_Uninitialized_move@PEAEV?$allocator@E@std@@@std@@YAPEAEQEAE0PEAEAEAV?$allocator@E@0@@Z PROC ; std::_Uninitialized_move<unsigned char *,std::allocator<unsigned char> >, COMDAT

; 1647 :     const _InIt _First, const _InIt _Last, _Alloc_ptr_t<_Alloc> _Dest, _Alloc& _Al) {

$LN6:
  00000	40 53		 push	 rbx
  00002	56		 push	 rsi
  00003	57		 push	 rdi
  00004	48 83 ec 20	 sub	 rsp, 32			; 00000020H
  00008	49 8b f0	 mov	 rsi, r8
  0000b	48 8b fa	 mov	 rdi, rdx
; File C:\Program Files (x86)\Microsoft Visual Studio\2019\Community\VC\Tools\MSVC\14.27.29110\include\xutility

; 4117 :     const auto _Count           = static_cast<size_t>(_Last_ch - _First_ch);

  0000e	4c 8b c2	 mov	 r8, rdx
; File C:\Program Files (x86)\Microsoft Visual Studio\2019\Community\VC\Tools\MSVC\14.27.29110\include\xmemory

; 1647 :     const _InIt _First, const _InIt _Last, _Alloc_ptr_t<_Alloc> _Dest, _Alloc& _Al) {

  00011	48 8b d9	 mov	 rbx, rcx
; File C:\Program Files (x86)\Microsoft Visual Studio\2019\Community\VC\Tools\MSVC\14.27.29110\include\xutility

; 4117 :     const auto _Count           = static_cast<size_t>(_Last_ch - _First_ch);

  00014	4c 2b c1	 sub	 r8, rcx

; 4118 :     _CSTD memmove(_Dest_ch, _First_ch, _Count);

  00017	48 8b d1	 mov	 rdx, rcx
  0001a	48 8b ce	 mov	 rcx, rsi
  0001d	e8 00 00 00 00	 call	 memmove
; File C:\Program Files (x86)\Microsoft Visual Studio\2019\Community\VC\Tools\MSVC\14.27.29110\include\xmemory

; 1656 :         return _Dest + (_ULast - _UFirst);

  00022	48 2b f3	 sub	 rsi, rbx
  00025	48 8d 04 37	 lea	 rax, QWORD PTR [rdi+rsi]

; 1657 :     } else {
; 1658 :         _Uninitialized_backout_al<_Alloc> _Backout{_Dest, _Al};
; 1659 :         for (; _UFirst != _ULast; ++_UFirst) {
; 1660 :             _Backout._Emplace_back(_STD move(*_UFirst));
; 1661 :         }
; 1662 : 
; 1663 :         return _Backout._Release();
; 1664 :     }
; 1665 : }

  00029	48 83 c4 20	 add	 rsp, 32			; 00000020H
  0002d	5f		 pop	 rdi
  0002e	5e		 pop	 rsi
  0002f	5b		 pop	 rbx
  00030	c3		 ret	 0
??$_Uninitialized_move@PEAEV?$allocator@E@std@@@std@@YAPEAEQEAE0PEAEAEAV?$allocator@E@0@@Z ENDP ; std::_Uninitialized_move<unsigned char *,std::allocator<unsigned char> >
_TEXT	ENDS
; Function compile flags: /Ogtpy
; File C:\Program Files (x86)\Microsoft Visual Studio\2019\Community\VC\Tools\MSVC\14.27.29110\include\xmemory
;	COMDAT ??$_Destroy_range@V?$allocator@E@std@@@std@@YAXPEAEQEAEAEAV?$allocator@E@0@@Z
_TEXT	SEGMENT
_First$ = 8
_Last$ = 16
_Al$ = 24
??$_Destroy_range@V?$allocator@E@std@@@std@@YAXPEAEQEAEAEAV?$allocator@E@0@@Z PROC ; std::_Destroy_range<std::allocator<unsigned char> >, COMDAT

; 956  :     // note that this is an optimization for debug mode codegen; in release mode the BE removes all of this
; 957  :     using _Ty = typename _Alloc::value_type;
; 958  :     if _CONSTEXPR_IF (!conjunction_v<is_trivially_destructible<_Ty>, _Uses_default_destroy<_Alloc, _Ty*>>) {
; 959  :         for (; _First != _Last; ++_First) {
; 960  :             allocator_traits<_Alloc>::destroy(_Al, _Unfancy(_First));
; 961  :         }
; 962  :     }
; 963  : }

  00000	c2 00 00	 ret	 0
??$_Destroy_range@V?$allocator@E@std@@@std@@YAXPEAEQEAEAEAV?$allocator@E@0@@Z ENDP ; std::_Destroy_range<std::allocator<unsigned char> >
_TEXT	ENDS
; Function compile flags: /Ogtpy
; File C:\Program Files (x86)\Microsoft Visual Studio\2019\Community\VC\Tools\MSVC\14.27.29110\include\xmemory
; File C:\Program Files (x86)\Microsoft Visual Studio\2019\Community\VC\Tools\MSVC\14.27.29110\include\xutility
; File C:\Program Files (x86)\Microsoft Visual Studio\2019\Community\VC\Tools\MSVC\14.27.29110\include\xmemory
;	COMDAT ??$_Uninitialized_move@PEAPEAU_VM_INSTRUCTION@@V?$allocator@PEAU_VM_INSTRUCTION@@@std@@@std@@YAPEAPEAU_VM_INSTRUCTION@@QEAPEAU1@0PEAPEAU1@AEAV?$allocator@PEAU_VM_INSTRUCTION@@@0@@Z
_TEXT	SEGMENT
_First$ = 48
_Last$ = 56
_Dest$ = 64
_Al$ = 72
??$_Uninitialized_move@PEAPEAU_VM_INSTRUCTION@@V?$allocator@PEAU_VM_INSTRUCTION@@@std@@@std@@YAPEAPEAU_VM_INSTRUCTION@@QEAPEAU1@0PEAPEAU1@AEAV?$allocator@PEAU_VM_INSTRUCTION@@@0@@Z PROC ; std::_Uninitialized_move<_VM_INSTRUCTION * *,std::allocator<_VM_INSTRUCTION *> >, COMDAT

; 1647 :     const _InIt _First, const _InIt _Last, _Alloc_ptr_t<_Alloc> _Dest, _Alloc& _Al) {

$LN6:
  00000	48 89 5c 24 20	 mov	 QWORD PTR [rsp+32], rbx
  00005	57		 push	 rdi
  00006	48 83 ec 20	 sub	 rsp, 32			; 00000020H
  0000a	48 8b da	 mov	 rbx, rdx
  0000d	49 8b f8	 mov	 rdi, r8
